///////////////////////////////////////////////////////////////////////////////
//
// IAR C/C++ Compiler V10.20.1.5333 for 8051              14/Jul/2019  16:10:12
// Copyright 2004-2018 IAR Systems AB.
// PC-locked license - IAR Embedded Workbench for 8051
//
//    Core               =  plain
//    Code model         =  banked
//    Data model         =  large
//    Calling convention =  xdata reentrant
//    Constant location  =  data_rom
//    Dptr setup         =  1,16
//                          
//    Source file        =  
//        C:\Users\Administrator\Desktop\111 -
//        副本\ZStack-CC2530-r200\Components\mt\MT_UART.c
//    Command line       =  
//        -f C:\Users\ADMINI~1\AppData\Local\Temp\EW6EFD.tmp
//        ("C:\Users\Administrator\Desktop\111 -
//        副本\ZStack-CC2530-r200\Components\mt\MT_UART.c" -D ZTOOL_P1 -D
//        MT_TASK -D MT_SYS_FUNC -D MT_ZDO_FUNC -D LCD_SUPPORTED=DEBUG -D
//        SAPP_ZSTACK -lC "C:\Users\Administrator\Desktop\111 -
//        副本\ZStack-CC2530-r200\Projects\SappWsn\RouterEB\List" -lA
//        "C:\Users\Administrator\Desktop\111 -
//        副本\ZStack-CC2530-r200\Projects\SappWsn\RouterEB\List"
//        --diag_suppress Pe001,Pa010 -o "C:\Users\Administrator\Desktop\111 -
//        副本\ZStack-CC2530-r200\Projects\SappWsn\RouterEB\Obj" -e --debug
//        --core=plain --dptr=16,1 --data_model=large --code_model=banked
//        --calling_convention=xdata_reentrant --place_constants=data_rom
//        --nr_virtual_regs 8 -f "C:\Users\Administrator\Desktop\111 -
//        副本\ZStack-CC2530-r200\Projects\SappWsn\..\zstack\Tools\CC2530DB\f8wRouter.cfg"
//        (-DCPU32MHZ -DROOT=__near_func -DMAC_CFG_APP_PENDING_QUEUE=TRUE
//        -DMAC_CFG_TX_DATA_MAX=5 -DMAC_CFG_TX_MAX=8 -DMAC_CFG_RX_MAX=5
//        -DRTR_NWK) -f "C:\Users\Administrator\Desktop\111 -
//        副本\ZStack-CC2530-r200\Projects\SappWsn\..\zstack\Tools\CC2530DB\f8wConfig.cfg"
//        (-DZIGBEEPRO -DSECURE=0 -DZG_SECURE_DYNAMIC=0 -DREFLECTOR
//        -DDEFAULT_CHANLIST=0x00000800 -DZDAPP_CONFIG_PAN_ID=0x4545
//        -DNWK_START_DELAY=100 -DEXTENDED_JOINING_RANDOM_MASK=0x007F
//        -DBEACON_REQUEST_DELAY=100 -DBEACON_REQ_DELAY_MASK=0x00FF
//        -DLINK_STATUS_JITTER_MASK=0x007F -DROUTE_EXPIRY_TIME=30
//        -DAPSC_ACK_WAIT_DURATION_POLLED=3000 -DNWK_INDIRECT_MSG_TIMEOUT=7
//        -DMAX_RREQ_ENTRIES=8 -DAPSC_MAX_FRAME_RETRIES=3
//        -DNWK_MAX_DATA_RETRIES=2 -DMAX_POLL_FAILURE_RETRIES=2 -DMAX_BCAST=9
//        -DAPS_MAX_GROUPS=16 -DMAX_RTG_ENTRIES=40 -DNWK_MAX_BINDING_ENTRIES=4
//        -DMAX_BINDING_CLUSTER_IDS=4 "-DDEFAULT_KEY={0x01, 0x03, 0x05, 0x07,
//        0x09, 0x0B, 0x0D, 0x0F, 0x00, 0x02, 0x04, 0x06, 0x08, 0x0A, 0x0C,
//        0x0D}" -DMAC_MAX_FRAME_SIZE=116 -DZDNWKMGR_MIN_TRANSMISSIONS=20
//        "-DCONST=const __code" -DGENERIC=__generic -DRFD_RCVC_ALWAYS_ON=FALSE
//        -DPOLL_RATE=1000 -DQUEUED_POLL_RATE=100 -DRESPONSE_POLL_RATE=100
//        -DREJOIN_POLL_RATE=440) -I "C:\Users\Administrator\Desktop\111 -
//        副本\ZStack-CC2530-r200\Projects\SappWsn\" -I
//        "C:\Users\Administrator\Desktop\111 -
//        副本\ZStack-CC2530-r200\Projects\SappWsn\Source\" -I
//        "C:\Users\Administrator\Desktop\111 -
//        副本\ZStack-CC2530-r200\Projects\SappWsn\..\zstack\ZMain\TI2530DB\"
//        -I "C:\Users\Administrator\Desktop\111 -
//        副本\ZStack-CC2530-r200\Projects\SappWsn\..\..\Components\hal\include\"
//        -I "C:\Users\Administrator\Desktop\111 -
//        副本\ZStack-CC2530-r200\Projects\SappWsn\..\..\Components\hal\target\CC2530EB\"
//        -I "C:\Users\Administrator\Desktop\111 -
//        副本\ZStack-CC2530-r200\Projects\SappWsn\..\..\Components\mac\include\"
//        -I "C:\Users\Administrator\Desktop\111 -
//        副本\ZStack-CC2530-r200\Projects\SappWsn\..\..\Components\mac\high_level\"
//        -I "C:\Users\Administrator\Desktop\111 -
//        副本\ZStack-CC2530-r200\Projects\SappWsn\..\..\Components\mac\low_level\srf04\"
//        -I "C:\Users\Administrator\Desktop\111 -
//        副本\ZStack-CC2530-r200\Projects\SappWsn\..\..\Components\mac\low_level\srf04\single_chip\"
//        -I "C:\Users\Administrator\Desktop\111 -
//        副本\ZStack-CC2530-r200\Projects\SappWsn\..\..\Components\mt\" -I
//        "C:\Users\Administrator\Desktop\111 -
//        副本\ZStack-CC2530-r200\Projects\SappWsn\..\..\Components\osal\include\"
//        -I "C:\Users\Administrator\Desktop\111 -
//        副本\ZStack-CC2530-r200\Projects\SappWsn\..\..\Components\services\saddr\"
//        -I "C:\Users\Administrator\Desktop\111 -
//        副本\ZStack-CC2530-r200\Projects\SappWsn\..\..\Components\services\sdata\"
//        -I "C:\Users\Administrator\Desktop\111 -
//        副本\ZStack-CC2530-r200\Projects\SappWsn\..\..\Components\stack\af\"
//        -I "C:\Users\Administrator\Desktop\111 -
//        副本\ZStack-CC2530-r200\Projects\SappWsn\..\..\Components\stack\nwk\"
//        -I "C:\Users\Administrator\Desktop\111 -
//        副本\ZStack-CC2530-r200\Projects\SappWsn\..\..\Components\stack\sapi\"
//        -I "C:\Users\Administrator\Desktop\111 -
//        副本\ZStack-CC2530-r200\Projects\SappWsn\..\..\Components\stack\sec\"
//        -I "C:\Users\Administrator\Desktop\111 -
//        副本\ZStack-CC2530-r200\Projects\SappWsn\..\..\Components\stack\sys\"
//        -I "C:\Users\Administrator\Desktop\111 -
//        副本\ZStack-CC2530-r200\Projects\SappWsn\..\..\Components\stack\zdo\"
//        -I "C:\Users\Administrator\Desktop\111 -
//        副本\ZStack-CC2530-r200\Projects\SappWsn\..\..\Components\zmac\" -I
//        "C:\Users\Administrator\Desktop\111 -
//        副本\ZStack-CC2530-r200\Projects\SappWsn\..\..\Components\zmac\f8w\"
//        -Ohz --require_prototypes --no_code_motion)
//    Locale             =  Chinese (Simplified)_CHN.936
//    List file          =  
//        C:\Users\Administrator\Desktop\111 -
//        副本\ZStack-CC2530-r200\Projects\SappWsn\RouterEB\List\MT_UART.s51
//
///////////////////////////////////////////////////////////////////////////////

        NAME MT_UART

        RTMODEL "__SystemLibrary", "CLib"
        RTMODEL "__calling_convention", "xdata_reentrant"
        RTMODEL "__code_model", "banked"
        RTMODEL "__core", "plain"
        RTMODEL "__data_model", "large"
        RTMODEL "__dptr_size", "16"
        RTMODEL "__extended_stack", "disabled"
        RTMODEL "__location_for_constants", "data"
        RTMODEL "__number_of_dptrs", "1"
        RTMODEL "__register_banks", "*"
        RTMODEL "__rt_version", "1"

        RSEG DOVERLAY:DATA:NOROOT(0)
        RSEG IOVERLAY:IDATA:NOROOT(0)
        RSEG ISTACK:IDATA:NOROOT(0)
        RSEG PSTACK:XDATA:NOROOT(0)
        RSEG XSTACK:XDATA:NOROOT(0)

        EXTERN ?V0
        EXTERN ?V2
        EXTERN ?V3
        EXTERN ?V1
        EXTERN ?ALLOC_XSTACK8
        EXTERN ?BANKED_ENTER_XDATA
        EXTERN ?BANKED_LEAVE_XDATA
        EXTERN ?BDISPATCH
        EXTERN ?BRET
        EXTERN ?DEALLOC_XSTACK8
        EXTERN ?XSP
        EXTERN ?XSTACK_DISP0_8
        EXTERN __INIT_XDATA_Z

        PUBLIC `??MT_UartCalcFCS::?relay`
        FUNCTION `??MT_UartCalcFCS::?relay`,0203H
        PUBLIC `??MT_UartInit::?relay`
        FUNCTION `??MT_UartInit::?relay`,0203H
        PUBLIC `??MT_UartProcessZToolData1::?relay`
        FUNCTION `??MT_UartProcessZToolData1::?relay`,0203H
        PUBLIC `??MT_UartProcessZToolData::?relay`
        FUNCTION `??MT_UartProcessZToolData::?relay`,0203H
        PUBLIC `??MT_UartRegisterTaskID::?relay`
        FUNCTION `??MT_UartRegisterTaskID::?relay`,0203H
        PUBLIC App_TaskID
        PUBLIC MT_UartCalcFCS
        FUNCTION MT_UartCalcFCS,0203H
        ARGFRAME XSTACK, 11, STACK
        ARGFRAME IOVERLAY, 0, STATIC
        ARGFRAME DOVERLAY, 0, STATIC
        LOCFRAME XSTACK, 9, STACK
        PUBLIC MT_UartInit
        FUNCTION MT_UartInit,021203H
        ARGFRAME XSTACK, 0, STACK
        LOCFRAME ISTACK, 2, STACK
        LOCFRAME XSTACK, 29, STACK
        PUBLIC MT_UartProcessZToolData
        FUNCTION MT_UartProcessZToolData,0a1203H
        ARGFRAME XSTACK, 0, STACK
        LOCFRAME ISTACK, 1, STACK
        LOCFRAME XSTACK, 11, STACK
        PUBLIC MT_UartProcessZToolData1
        FUNCTION MT_UartProcessZToolData1,0a1603H
        ARGFRAME XSTACK, 0, STACK
        LOCFRAME ISTACK, 1, STACK
        LOCFRAME XSTACK, 140, STACK
        PUBLIC MT_UartRegisterTaskID
        FUNCTION MT_UartRegisterTaskID,0203H
        ARGFRAME XSTACK, 0, STACK
        LOCFRAME ISTACK, 2, STACK
        PUBLIC pMsg
        PUBLIC pMsgContent
        PUBLIC state
        PUBLIC tempDataLen
        
          CFI Names cfiNames0
          CFI StackFrame CFA_SP SP IDATA
          CFI StackFrame CFA_PSP16 PSP16 XDATA
          CFI StackFrame CFA_XSP16 XSP16 XDATA
          CFI StaticOverlayFrame CFA_IOVERLAY IOVERLAY
          CFI StaticOverlayFrame CFA_DOVERLAY DOVERLAY
          CFI Resource `PSW.CY`:1, `B.BR0`:1, `B.BR1`:1, `B.BR2`:1, `B.BR3`:1
          CFI Resource `B.BR4`:1, `B.BR5`:1, `B.BR6`:1, `B.BR7`:1, `VB.BR8`:1
          CFI Resource `VB.BR9`:1, `VB.BR10`:1, `VB.BR11`:1, `VB.BR12`:1
          CFI Resource `VB.BR13`:1, `VB.BR14`:1, `VB.BR15`:1, VB:8, B:8, A:8
          CFI Resource PSW:8, DPL0:8, DPH0:8, R0:8, R1:8, R2:8, R3:8, R4:8, R5:8
          CFI Resource R6:8, R7:8, V0:8, V1:8, V2:8, V3:8, V4:8, V5:8, V6:8, V7:8
          CFI Resource SP:8, PSPH:8, PSPL:8, PSP16:16, XSPH:8, XSPL:8, XSP16:16
          CFI VirtualResource ?RET:24
          CFI Resource ?BRET_EXT:8
          CFI VirtualResource ?RET_HIGH:8, ?RET_LOW:8
          CFI ResourceParts PSP16 PSPH, PSPL
          CFI ResourceParts XSP16 XSPH, XSPL
          CFI ResourceParts ?RET ?BRET_EXT, ?RET_HIGH, ?RET_LOW
          CFI EndNames cfiNames0
        
          CFI Common cfiCommon0 Using cfiNames0
          CFI CodeAlign 1
          CFI DataAlign -1
          CFI ReturnAddress ?RET CODE
          CFI CFA_DOVERLAY Used
          CFI CFA_IOVERLAY Used
          CFI CFA_SP SP+-3
          CFI CFA_PSP16 PSP16+0
          CFI CFA_XSP16 XSP16+0
          CFI `PSW.CY` SameValue
          CFI `B.BR0` SameValue
          CFI `B.BR1` SameValue
          CFI `B.BR2` SameValue
          CFI `B.BR3` SameValue
          CFI `B.BR4` SameValue
          CFI `B.BR5` SameValue
          CFI `B.BR6` SameValue
          CFI `B.BR7` SameValue
          CFI `VB.BR8` SameValue
          CFI `VB.BR9` SameValue
          CFI `VB.BR10` SameValue
          CFI `VB.BR11` SameValue
          CFI `VB.BR12` SameValue
          CFI `VB.BR13` SameValue
          CFI `VB.BR14` SameValue
          CFI `VB.BR15` SameValue
          CFI VB SameValue
          CFI B Undefined
          CFI A Undefined
          CFI PSW SameValue
          CFI DPL0 SameValue
          CFI DPH0 SameValue
          CFI R0 Undefined
          CFI R1 Undefined
          CFI R2 Undefined
          CFI R3 Undefined
          CFI R4 Undefined
          CFI R5 Undefined
          CFI R6 SameValue
          CFI R7 SameValue
          CFI V0 SameValue
          CFI V1 SameValue
          CFI V2 SameValue
          CFI V3 SameValue
          CFI V4 SameValue
          CFI V5 SameValue
          CFI V6 SameValue
          CFI V7 SameValue
          CFI PSPH Undefined
          CFI PSPL Undefined
          CFI XSPH Undefined
          CFI XSPL Undefined
          CFI ?RET Concat
          CFI ?BRET_EXT Frame(CFA_SP, 3)
          CFI ?RET_HIGH Frame(CFA_SP, 2)
          CFI ?RET_LOW Frame(CFA_SP, 1)
          CFI EndCommon cfiCommon0
        
        
          CFI Common cfiCommon1 Using cfiNames0
          CFI CodeAlign 1
          CFI DataAlign -1
          CFI ReturnAddress ?RET CODE
          CFI CFA_DOVERLAY Used
          CFI CFA_IOVERLAY Used
          CFI CFA_SP SP+-2
          CFI CFA_PSP16 PSP16+0
          CFI CFA_XSP16 XSP16+0
          CFI `PSW.CY` SameValue
          CFI `B.BR0` SameValue
          CFI `B.BR1` SameValue
          CFI `B.BR2` SameValue
          CFI `B.BR3` SameValue
          CFI `B.BR4` SameValue
          CFI `B.BR5` SameValue
          CFI `B.BR6` SameValue
          CFI `B.BR7` SameValue
          CFI `VB.BR8` SameValue
          CFI `VB.BR9` SameValue
          CFI `VB.BR10` SameValue
          CFI `VB.BR11` SameValue
          CFI `VB.BR12` SameValue
          CFI `VB.BR13` SameValue
          CFI `VB.BR14` SameValue
          CFI `VB.BR15` SameValue
          CFI VB SameValue
          CFI B SameValue
          CFI A SameValue
          CFI PSW SameValue
          CFI DPL0 SameValue
          CFI DPH0 SameValue
          CFI R0 SameValue
          CFI R1 SameValue
          CFI R2 SameValue
          CFI R3 SameValue
          CFI R4 SameValue
          CFI R5 SameValue
          CFI R6 SameValue
          CFI R7 SameValue
          CFI V0 SameValue
          CFI V1 SameValue
          CFI V2 SameValue
          CFI V3 SameValue
          CFI V4 SameValue
          CFI V5 SameValue
          CFI V6 SameValue
          CFI V7 SameValue
          CFI PSPH Undefined
          CFI PSPL Undefined
          CFI XSPH Undefined
          CFI XSPL Undefined
          CFI ?RET Concat
          CFI ?BRET_EXT SameValue
          CFI ?RET_HIGH Frame(CFA_SP, 2)
          CFI ?RET_LOW Frame(CFA_SP, 1)
          CFI EndCommon cfiCommon1
        
HalUARTOpen         SYMBOL "HalUARTOpen"
`??HalUARTOpen::?relay` SYMBOL "?relay", HalUARTOpen
HalUARTRead         SYMBOL "HalUARTRead"
`??HalUARTRead::?relay` SYMBOL "?relay", HalUARTRead
Hal_UART_RxBufLen   SYMBOL "Hal_UART_RxBufLen"
`??Hal_UART_RxBufLen::?relay` SYMBOL "?relay", Hal_UART_RxBufLen
osal_msg_allocate   SYMBOL "osal_msg_allocate"
`??osal_msg_allocate::?relay` SYMBOL "?relay", osal_msg_allocate
osal_msg_deallocate SYMBOL "osal_msg_deallocate"
`??osal_msg_deallocate::?relay` SYMBOL "?relay", osal_msg_deallocate
osal_msg_send       SYMBOL "osal_msg_send"
`??osal_msg_send::?relay` SYMBOL "?relay", osal_msg_send
MT_UartCalcFCS      SYMBOL "MT_UartCalcFCS"
`??MT_UartCalcFCS::?relay` SYMBOL "?relay", MT_UartCalcFCS
MT_UartInit         SYMBOL "MT_UartInit"
`??MT_UartInit::?relay` SYMBOL "?relay", MT_UartInit
MT_UartProcessZToolData1 SYMBOL "MT_UartProcessZToolData1"
`??MT_UartProcessZToolData1::?relay` SYMBOL "?relay", MT_UartProcessZToolData1
MT_UartProcessZToolData SYMBOL "MT_UartProcessZToolData"
`??MT_UartProcessZToolData::?relay` SYMBOL "?relay", MT_UartProcessZToolData
MT_UartRegisterTaskID SYMBOL "MT_UartRegisterTaskID"
`??MT_UartRegisterTaskID::?relay` SYMBOL "?relay", MT_UartRegisterTaskID

        EXTERN `??HalUARTOpen::?relay`
        FUNCTION `??HalUARTOpen::?relay`,00H
        EXTERN `??HalUARTRead::?relay`
        FUNCTION `??HalUARTRead::?relay`,00H
        EXTERN `??Hal_UART_RxBufLen::?relay`
        FUNCTION `??Hal_UART_RxBufLen::?relay`,00H
        EXTERN `??osal_msg_allocate::?relay`
        FUNCTION `??osal_msg_allocate::?relay`,00H
        EXTERN `??osal_msg_deallocate::?relay`
        FUNCTION `??osal_msg_deallocate::?relay`,00H
        EXTERN `??osal_msg_send::?relay`
        FUNCTION `??osal_msg_send::?relay`,00H
        EXTERN HalUARTOpen
        FUNCTION HalUARTOpen,0202H
        ARGFRAME ISTACK, 2, STACK
        ARGFRAME PSTACK, 0, STACK
        ARGFRAME XSTACK, 29, STACK
        ARGFRAME IOVERLAY, 0, STATIC
        ARGFRAME DOVERLAY, 0, STATIC
        EXTERN HalUARTRead
        FUNCTION HalUARTRead,0202H
        ARGFRAME ISTACK, 0, STACK
        ARGFRAME PSTACK, 0, STACK
        ARGFRAME XSTACK, 140, STACK
        ARGFRAME IOVERLAY, 0, STATIC
        ARGFRAME DOVERLAY, 0, STATIC
        EXTERN Hal_UART_RxBufLen
        FUNCTION Hal_UART_RxBufLen,0202H
        ARGFRAME ISTACK, 0, STACK
        ARGFRAME PSTACK, 0, STACK
        ARGFRAME XSTACK, 140, STACK
        ARGFRAME IOVERLAY, 0, STATIC
        ARGFRAME DOVERLAY, 0, STATIC
        EXTERN osal_msg_allocate
        FUNCTION osal_msg_allocate,0202H
        ARGFRAME ISTACK, 0, STACK
        ARGFRAME PSTACK, 0, STACK
        ARGFRAME XSTACK, 140, STACK
        ARGFRAME IOVERLAY, 0, STATIC
        ARGFRAME DOVERLAY, 0, STATIC
        EXTERN osal_msg_deallocate
        FUNCTION osal_msg_deallocate,0202H
        ARGFRAME ISTACK, 0, STACK
        ARGFRAME PSTACK, 0, STACK
        ARGFRAME XSTACK, 140, STACK
        ARGFRAME IOVERLAY, 0, STATIC
        ARGFRAME DOVERLAY, 0, STATIC
        EXTERN osal_msg_send
        FUNCTION osal_msg_send,0202H
        ARGFRAME ISTACK, 0, STACK
        ARGFRAME PSTACK, 0, STACK
        ARGFRAME XSTACK, 140, STACK
        ARGFRAME IOVERLAY, 0, STATIC
        ARGFRAME DOVERLAY, 0, STATIC

// C:\Users\Administrator\Desktop\111 - 副本\ZStack-CC2530-r200\Components\mt\MT_UART.c
//    1 /***************************************************************************************************
//    2   Filename:       MT_UART.c
//    3   Revised:        $Date: 2009-03-12 16:25:22 -0700 (Thu, 12 Mar 2009) $
//    4   Revision:       $Revision: 19404 $
//    5 
//    6   Description:  This module handles anything dealing with the serial port.
//    7 
//    8   Copyright 2007 Texas Instruments Incorporated. All rights reserved.
//    9 
//   10   IMPORTANT: Your use of this Software is limited to those specific rights
//   11   granted under the terms of a software license agreement between the user
//   12   who downloaded the software, his/her employer (which must be your employer)
//   13   and Texas Instruments Incorporated (the "License").  You may not use this
//   14   Software unless you agree to abide by the terms of the License. The License
//   15   limits your use, and you acknowledge, that the Software may not be modified,
//   16   copied or distributed unless embedded on a Texas Instruments microcontroller
//   17   or used solely and exclusively in conjunction with a Texas Instruments radio
//   18   frequency transceiver, which is integrated into your product.  Other than for
//   19   the foregoing purpose, you may not use, reproduce, copy, prepare derivative
//   20   works of, modify, distribute, perform, display or sell this Software and/or
//   21   its documentation for any purpose.
//   22 
//   23   YOU FURTHER ACKNOWLEDGE AND AGREE THAT THE SOFTWARE AND DOCUMENTATION ARE
//   24   PROVIDED AS IS?WITHOUT WARRANTY OF ANY KIND, EITHER EXPRESS OR IMPLIED,
//   25   INCLUDING WITHOUT LIMITATION, ANY WARRANTY OF MERCHANTABILITY, TITLE,
//   26   NON-INFRINGEMENT AND FITNESS FOR A PARTICULAR PURPOSE. IN NO EVENT SHALL
//   27   TEXAS INSTRUMENTS OR ITS LICENSORS BE LIABLE OR OBLIGATED UNDER CONTRACT,
//   28   NEGLIGENCE, STRICT LIABILITY, CONTRIBUTION, BREACH OF WARRANTY, OR OTHER
//   29   LEGAL EQUITABLE THEORY ANY DIRECT OR INDIRECT DAMAGES OR EXPENSES
//   30   INCLUDING BUT NOT LIMITED TO ANY INCIDENTAL, SPECIAL, INDIRECT, PUNITIVE
//   31   OR CONSEQUENTIAL DAMAGES, LOST PROFITS OR LOST DATA, COST OF PROCUREMENT
//   32   OF SUBSTITUTE GOODS, TECHNOLOGY, SERVICES, OR ANY CLAIMS BY THIRD PARTIES
//   33   (INCLUDING BUT NOT LIMITED TO ANY DEFENSE THEREOF), OR OTHER SIMILAR COSTS.
//   34 
//   35   Should you have any questions regarding your right to use this Software,
//   36   contact Texas Instruments Incorporated at www.TI.com.
//   37 
//   38 ***************************************************************************************************/
//   39 
//   40 /***************************************************************************************************
//   41  * INCLUDES
//   42  ***************************************************************************************************/
//   43 #include "ZComDef.h"
//   44 #include "OSAL.h"
//   45 #include "hal_uart.h"
//   46 #include "MT.h"
//   47 #include "MT_UART.h"
//   48 #include "OSAL_Memory.h"
//   49 
//   50 
//   51 /***************************************************************************************************
//   52  * MACROS
//   53  ***************************************************************************************************/
//   54 
//   55 /***************************************************************************************************
//   56  * CONSTANTS
//   57  ***************************************************************************************************/
//   58 /* State values for ZTool protocal */
//   59 #define SOP_STATE      0x00
//   60 #define LEN_STATE      0x01
//   61 #define DATA_STATE     0x02
//   62 #define FCS_STATE      0x03
//   63 
//   64 /***************************************************************************************************
//   65  *                                         GLOBAL VARIABLES
//   66  ***************************************************************************************************/
//   67 /* Used to indentify the application ID for osal task */

        RSEG XDATA_Z:XDATA:NOROOT(0)
        DATA8
//   68 uint8 App_TaskID;
App_TaskID:
        DS 1
        REQUIRE __INIT_XDATA_Z
//   69 
//   70 /* ZTool protocal parameters */

        RSEG XDATA_Z:XDATA:NOROOT(0)
        DATA8
//   71 uint8 state = SOP_STATE;
state:
        DS 1
        REQUIRE __INIT_XDATA_Z

        RSEG XDATA_Z:XDATA:NOROOT(0)
        DATA16
//   72 mtOSALSerialData_t  *pMsg;
pMsg:
        DS 2
        REQUIRE __INIT_XDATA_Z

        RSEG XDATA_Z:XDATA:NOROOT(0)
        DATA16
//   73 mtUserSerialMsg_t   *pMsgContent;
pMsgContent:
        DS 2
        REQUIRE __INIT_XDATA_Z

        RSEG XDATA_Z:XDATA:NOROOT(0)
        DATA8
//   74 uint8  tempDataLen;
tempDataLen:
        DS 1
        REQUIRE __INIT_XDATA_Z
//   75 
//   76 #if defined (ZAPP_P1) || defined (ZAPP_P2)
//   77 uint16  MT_UartMaxZAppBufLen;
//   78 bool    MT_UartZAppRxStatus;
//   79 #endif
//   80 
//   81 
//   82 /***************************************************************************************************
//   83  *                                          LOCAL FUNCTIONS
//   84  ***************************************************************************************************/
//   85 
//   86 /***************************************************************************************************
//   87  * @fn      MT_UartInit
//   88  *
//   89  * @brief   Initialize MT with UART support
//   90  *
//   91  * @param   None
//   92  *
//   93  * @return  None
//   94 ***************************************************************************************************/

        RSEG BANKED_CODE:HUGECODE:NOROOT(0)
//   95 void MT_UartInit ()
MT_UartInit:
          CFI Block cfiBlock0 Using cfiCommon0
          CFI Function MT_UartInit
        CODE
//   96 {
        FUNCALL MT_UartInit, HalUARTOpen
        LOCFRAME ISTACK, 2, STACK
        LOCFRAME PSTACK, 0, STACK
        LOCFRAME XSTACK, 29, STACK
        LOCFRAME IOVERLAY, 0, STATIC
        LOCFRAME DOVERLAY, 0, STATIC
        ARGFRAME ISTACK, 2, STACK
        ARGFRAME PSTACK, 0, STACK
        ARGFRAME XSTACK, 29, STACK
        ARGFRAME IOVERLAY, 0, STATIC
        ARGFRAME DOVERLAY, 0, STATIC
        PUSH      DPL
          CFI DPL0 Frame(CFA_SP, 4)
          CFI CFA_SP SP+-4
        PUSH      DPH
          CFI DPH0 Frame(CFA_SP, 5)
          CFI CFA_SP SP+-5
        ; Saved register size: 2
        ; Auto size: 29
        MOV       A,#-0x1d
        LCALL     ?ALLOC_XSTACK8
          CFI CFA_XSP16 add(XSP16, 29)
//   97   halUARTCfg_t uartConfig;
//   98 
//   99   /* Initialize APP ID */
//  100   App_TaskID = 0;
        MOV       DPTR,#App_TaskID
        CLR       A
        MOVX      @DPTR,A
//  101 
//  102   /* UART Configuration */
//  103   uartConfig.configured           = TRUE;
        MOV       DPL,?XSP + 0
        MOV       DPH,?XSP + 1
        INC       A
        MOVX      @DPTR,A
//  104   uartConfig.baudRate             = MT_UART_DEFAULT_BAUDRATE;
        LCALL     ?XSTACK_DISP0_8
        MOV       A,#0x4
        MOVX      @DPTR,A
//  105   uartConfig.flowControl          = MT_UART_DEFAULT_OVERFLOW;
        MOV       A,#0x2
        LCALL     ?XSTACK_DISP0_8
        CLR       A
        MOVX      @DPTR,A
//  106   uartConfig.flowControlThreshold = MT_UART_DEFAULT_THRESHOLD;
        MOV       A,#0x3
        LCALL     ?XSTACK_DISP0_8
        MOV       A,#0x40
        MOVX      @DPTR,A
        INC       DPTR
        CLR       A
        MOVX      @DPTR,A
//  107   uartConfig.rx.maxBufSize        = MT_UART_DEFAULT_MAX_RX_BUFF;
        MOV       A,#0xa
        LCALL     ?XSTACK_DISP0_8
        MOV       A,#-0x80
        MOVX      @DPTR,A
        INC       DPTR
        CLR       A
        MOVX      @DPTR,A
//  108   uartConfig.tx.maxBufSize        = MT_UART_DEFAULT_MAX_TX_BUFF;
        MOV       A,#0x12
        LCALL     ?XSTACK_DISP0_8
        MOV       A,#-0x80
        MOVX      @DPTR,A
        INC       DPTR
        CLR       A
        MOVX      @DPTR,A
//  109   uartConfig.idleTimeout          = MT_UART_DEFAULT_IDLE_TIMEOUT;
        MOV       A,#0x5
        LCALL     ?XSTACK_DISP0_8
        MOV       A,#0x6
        MOVX      @DPTR,A
//  110   uartConfig.intEnable            = TRUE;
        MOV       A,#0x16
        LCALL     ?XSTACK_DISP0_8
        MOV       A,#0x1
        MOVX      @DPTR,A
//  111 #if defined (ZTOOL_P1) || defined (ZTOOL_P2)
//  112   uartConfig.callBackFunc         = MT_UartProcessZToolData1;
        MOV       A,#0x1b
        LCALL     ?XSTACK_DISP0_8
        MOV       A,#`??MT_UartProcessZToolData1::?relay` & 0xff
        MOVX      @DPTR,A
        INC       DPTR
        MOV       A,#(`??MT_UartProcessZToolData1::?relay` >> 8) & 0xff
        MOVX      @DPTR,A
//  113 #elif defined (ZAPP_P1) || defined (ZAPP_P2)
//  114   uartConfig.callBackFunc         = MT_UartProcessZAppData;
//  115 #else
//  116   uartConfig.callBackFunc         = NULL;
//  117 #endif
//  118 
//  119   /* Start UART */
//  120 #if defined (MT_UART_DEFAULT_PORT)
//  121   HalUARTOpen (MT_UART_DEFAULT_PORT, &uartConfig);
        ; Setup parameters for call to function HalUARTOpen
        MOV       R2,?XSP + 0
        MOV       R3,?XSP + 1
        MOV       R1,#0x0
        LCALL     `??HalUARTOpen::?relay`; Banked call to: HalUARTOpen
//  122 #else
//  123   /* Silence IAR compiler warning */
//  124   (void)uartConfig;
//  125 #endif
//  126 
//  127   /* Initialize for ZApp */
//  128 #if defined (ZAPP_P1) || defined (ZAPP_P2)
//  129   /* Default max bytes that ZAPP can take */
//  130   MT_UartMaxZAppBufLen  = 1;
//  131   MT_UartZAppRxStatus   = MT_UART_ZAPP_RX_READY;
//  132 #endif
//  133 
//  134 }
        MOV       A,#0x1d
        LCALL     ?DEALLOC_XSTACK8
          CFI EndBlock cfiBlock0
        REQUIRE ?Subroutine0
        ; // Fall through to label ?Subroutine0

        RSEG BANKED_CODE:HUGECODE:NOROOT(0)
?Subroutine0:
          CFI Block cfiBlock1 Using cfiCommon0
          CFI NoFunction
          CFI CFA_SP SP+-5
          CFI DPL0 Frame(CFA_SP, 4)
          CFI DPH0 Frame(CFA_SP, 5)
        POP       DPH
          CFI CFA_SP SP+-4
          CFI DPH0 SameValue
        POP       DPL
          CFI CFA_SP SP+-3
          CFI DPL0 SameValue
        LJMP      ?BRET
          CFI EndBlock cfiBlock1
//  135 
//  136 /***************************************************************************************************
//  137  * @fn      MT_SerialRegisterTaskID
//  138  *
//  139  * @brief   This function registers the taskID of the application so it knows
//  140  *          where to send the messages whent they come in.
//  141  *
//  142  * @param   void
//  143  *
//  144  * @return  void
//  145  ***************************************************************************************************/

        RSEG BANKED_CODE:HUGECODE:NOROOT(0)
//  146 void MT_UartRegisterTaskID( byte taskID )
MT_UartRegisterTaskID:
          CFI Block cfiBlock2 Using cfiCommon0
          CFI Function MT_UartRegisterTaskID
        CODE
//  147 {
        PUSH      DPL
          CFI DPL0 Frame(CFA_SP, 4)
          CFI CFA_SP SP+-4
        PUSH      DPH
          CFI DPH0 Frame(CFA_SP, 5)
          CFI CFA_SP SP+-5
        ; Saved register size: 2
        ; Auto size: 0
//  148   App_TaskID = taskID;
        MOV       A,R1
        MOV       DPTR,#App_TaskID
        MOVX      @DPTR,A
//  149 }
        SJMP      ?Subroutine0
          CFI EndBlock cfiBlock2
//  150 
//  151 /***************************************************************************************************
//  152  * @fn      SPIMgr_CalcFCS
//  153  *
//  154  * @brief   Calculate the FCS of a message buffer by XOR'ing each byte.
//  155  *          Remember to NOT include SOP and FCS fields, so start at the CMD field.
//  156  *
//  157  * @param   byte *msg_ptr - message pointer
//  158  * @param   byte len - length (in bytes) of message
//  159  *
//  160  * @return  result byte
//  161  ***************************************************************************************************/

        RSEG BANKED_CODE:HUGECODE:NOROOT(0)
//  162 byte MT_UartCalcFCS(uint8 lastResult, uint8 *msg_ptr, uint8 len )
MT_UartCalcFCS:
          CFI Block cfiBlock3 Using cfiCommon0
          CFI Function MT_UartCalcFCS
        CODE
//  163 {
        MOV       A,#-0x9
        LCALL     ?BANKED_ENTER_XDATA
          CFI DPH0 load(1, XDATA, add(CFA_XSP16, literal(-1)))
          CFI DPL0 load(1, XDATA, add(CFA_XSP16, literal(-2)))
          CFI ?BRET_EXT load(1, XDATA, add(CFA_XSP16, literal(-3)))
          CFI ?RET_HIGH load(1, XDATA, add(CFA_XSP16, literal(-4)))
          CFI ?RET_LOW load(1, XDATA, add(CFA_XSP16, literal(-5)))
          CFI R7 load(1, XDATA, add(CFA_XSP16, literal(-6)))
          CFI V0 load(1, XDATA, add(CFA_XSP16, literal(-7)))
          CFI VB load(1, XDATA, add(CFA_XSP16, literal(-8)))
          CFI R6 load(1, XDATA, add(CFA_XSP16, literal(-9)))
          CFI CFA_SP SP+0
          CFI CFA_XSP16 add(XSP16, 9)
        ; Saved register size: 9
        ; Auto size: 0
//  164   uint8 x;
//  165   uint8 xorResult = lastResult;
//  166 
//  167   for ( x = 0; x < len; x++, msg_ptr++ )
        MOV       R0,#0x0
        SJMP      ??MT_UartCalcFCS_0
//  168     xorResult = xorResult ^ *msg_ptr;
??MT_UartCalcFCS_1:
        MOV       DPL,R2
        MOV       DPH,R3
        MOVX      A,@DPTR
        XCH       A,R1
        XRL       A,R1
        MOV       R1,A
        INC       R0
        INC       DPTR
        MOV       R2,DPL
        MOV       R3,DPH
??MT_UartCalcFCS_0:
        MOV       A,R0
        CLR       C
        SUBB      A,R4
        JC        ??MT_UartCalcFCS_1
//  169 
//  170   return ( xorResult );
        MOV       R7,#0x1
        LJMP      ?BANKED_LEAVE_XDATA
//  171 }
          CFI EndBlock cfiBlock3

        RSEG BANKED_CODE:HUGECODE:NOROOT(0)
//  172 void MT_UartProcessZToolData1 ( uint8 port, uint8 event )
MT_UartProcessZToolData1:
          CFI Block cfiBlock4 Using cfiCommon0
          CFI Function MT_UartProcessZToolData1
        CODE
//  173 {
        FUNCALL MT_UartProcessZToolData1, HalUARTRead
        LOCFRAME ISTACK, 0, STACK
        LOCFRAME PSTACK, 0, STACK
        LOCFRAME XSTACK, 140, STACK
        LOCFRAME IOVERLAY, 0, STATIC
        LOCFRAME DOVERLAY, 0, STATIC
        ARGFRAME ISTACK, 0, STACK
        ARGFRAME PSTACK, 0, STACK
        ARGFRAME XSTACK, 140, STACK
        ARGFRAME IOVERLAY, 0, STATIC
        ARGFRAME DOVERLAY, 0, STATIC
        FUNCALL MT_UartProcessZToolData1, Hal_UART_RxBufLen
        LOCFRAME ISTACK, 0, STACK
        LOCFRAME PSTACK, 0, STACK
        LOCFRAME XSTACK, 140, STACK
        LOCFRAME IOVERLAY, 0, STATIC
        LOCFRAME DOVERLAY, 0, STATIC
        ARGFRAME ISTACK, 0, STACK
        ARGFRAME PSTACK, 0, STACK
        ARGFRAME XSTACK, 140, STACK
        ARGFRAME IOVERLAY, 0, STATIC
        ARGFRAME DOVERLAY, 0, STATIC
        FUNCALL MT_UartProcessZToolData1, osal_msg_allocate
        LOCFRAME ISTACK, 0, STACK
        LOCFRAME PSTACK, 0, STACK
        LOCFRAME XSTACK, 140, STACK
        LOCFRAME IOVERLAY, 0, STATIC
        LOCFRAME DOVERLAY, 0, STATIC
        ARGFRAME ISTACK, 0, STACK
        ARGFRAME PSTACK, 0, STACK
        ARGFRAME XSTACK, 140, STACK
        ARGFRAME IOVERLAY, 0, STATIC
        ARGFRAME DOVERLAY, 0, STATIC
        FUNCALL MT_UartProcessZToolData1, osal_msg_send
        LOCFRAME ISTACK, 0, STACK
        LOCFRAME PSTACK, 0, STACK
        LOCFRAME XSTACK, 140, STACK
        LOCFRAME IOVERLAY, 0, STATIC
        LOCFRAME DOVERLAY, 0, STATIC
        ARGFRAME ISTACK, 0, STACK
        ARGFRAME PSTACK, 0, STACK
        ARGFRAME XSTACK, 140, STACK
        ARGFRAME IOVERLAY, 0, STATIC
        ARGFRAME DOVERLAY, 0, STATIC
        FUNCALL MT_UartProcessZToolData1, osal_msg_deallocate
        LOCFRAME ISTACK, 0, STACK
        LOCFRAME PSTACK, 0, STACK
        LOCFRAME XSTACK, 140, STACK
        LOCFRAME IOVERLAY, 0, STATIC
        LOCFRAME DOVERLAY, 0, STATIC
        ARGFRAME ISTACK, 0, STACK
        ARGFRAME PSTACK, 0, STACK
        ARGFRAME XSTACK, 140, STACK
        ARGFRAME IOVERLAY, 0, STATIC
        ARGFRAME DOVERLAY, 0, STATIC
        REQUIRE ?V0
        REQUIRE ?V2
        REQUIRE ?V3
        MOV       A,#-0xc
        LCALL     ?BANKED_ENTER_XDATA
          CFI DPH0 load(1, XDATA, add(CFA_XSP16, literal(-1)))
          CFI DPL0 load(1, XDATA, add(CFA_XSP16, literal(-2)))
          CFI ?BRET_EXT load(1, XDATA, add(CFA_XSP16, literal(-3)))
          CFI ?RET_HIGH load(1, XDATA, add(CFA_XSP16, literal(-4)))
          CFI ?RET_LOW load(1, XDATA, add(CFA_XSP16, literal(-5)))
          CFI R7 load(1, XDATA, add(CFA_XSP16, literal(-6)))
          CFI V3 load(1, XDATA, add(CFA_XSP16, literal(-7)))
          CFI V2 load(1, XDATA, add(CFA_XSP16, literal(-8)))
          CFI V1 load(1, XDATA, add(CFA_XSP16, literal(-9)))
          CFI V0 load(1, XDATA, add(CFA_XSP16, literal(-10)))
          CFI VB load(1, XDATA, add(CFA_XSP16, literal(-11)))
          CFI R6 load(1, XDATA, add(CFA_XSP16, literal(-12)))
          CFI CFA_SP SP+0
          CFI CFA_XSP16 add(XSP16, 12)
        ; Saved register size: 12
        ; Auto size: 128
        MOV       A,#-0x80
        LCALL     ?ALLOC_XSTACK8
          CFI CFA_XSP16 add(XSP16, 140)
        MOV       A,R1
        MOV       R6,A
//  174   uint8 flag = 0,i,j = 0;  //flag判断有没有数据，j记录数据长度
        MOV       ?V0,#0x0
        MOV       R7,#0x0
//  175   uint8 buf[128];         //缓冲128
//  176   (void)event;
        SJMP      ??MT_UartProcessZToolData1_0
//  177 
//  178   while(Hal_UART_RxBufLen(port)) //检测串口数据是否完成
//  179   {
//  180     HalUARTRead(port,&buf[j],1);//数据接收到buf
??MT_UartProcessZToolData1_1:
        ; Setup parameters for call to function HalUARTRead
        MOV       R4,#0x1
        MOV       R5,#0x0
        MOV       A,R7
        MOV       R0,A
        MOV       DPL,?XSP + 0
        MOV       DPH,?XSP + 1
        MOV       A,DPL
        ADD       A,R0
        MOV       R2,A
        CLR       A
        ADDC      A,DPH
        MOV       R3,A
        MOV       A,R6
        MOV       R1,A
        LCALL     `??HalUARTRead::?relay`; Banked call to: HalUARTRead
//  181     j++;
        INC       R7
//  182     flag = 1;
        MOV       ?V0,#0x1
//  183   }
??MT_UartProcessZToolData1_0:
        ; Setup parameters for call to function Hal_UART_RxBufLen
        MOV       A,R6
        MOV       R1,A
        LCALL     `??Hal_UART_RxBufLen::?relay`; Banked call to: Hal_UART_RxBufLen
        MOV       A,R2
        ORL       A,R3
        JNZ       ??MT_UartProcessZToolData1_1
//  184   if(flag == 1)   //有数据时
        MOV       A,?V0
        JZ        ??CrossCallReturnLabel_10
//  185   {//分配内存，结构体+内容+长度
//  186     pMsg = (mtOSALSerialData_t *)osal_msg_allocate( sizeof
//  187                                                    ( mtOSALSerialData_t )+j+1);
        ; Setup parameters for call to function osal_msg_allocate
        MOV       A,R7
        ADD       A,#0x5
        LCALL     ?Subroutine4 & 0xFFFF
//  188     pMsg->hdr.event = CMD_SERIAL_MSG;
??CrossCallReturnLabel_6:
        LCALL     ?Subroutine1 & 0xFFFF
//  189     pMsg->msg = (uint8*)(pMsg+1); //把数据定位到结构体
//  190     pMsg->msg [0]= j;             //记录数据长度
??CrossCallReturnLabel_0:
        MOV       A,R7
        MOV       DPL,R0
        MOV       DPH,R1
        MOVX      @DPTR,A
//  191     for(i=0;i<j;i++)
        MOV       R2,#0x0
        SJMP      ??MT_UartProcessZToolData1_2
//  192       pMsg->msg [i+1]= buf[i];
??MT_UartProcessZToolData1_3:
        MOV       A,R2
        MOV       R0,A
        MOV       DPL,?XSP + 0
        MOV       DPH,?XSP + 1
        MOV       A,DPL
        ADD       A,R0
        MOV       DPL,A
        CLR       A
        ADDC      A,DPH
        MOV       DPH,A
        MOVX      A,@DPTR
        PUSH      A
          CFI CFA_SP SP+-1
        MOV       DPTR,#pMsg
        MOVX      A,@DPTR
        MOV       R3,A
        INC       DPTR
        MOVX      A,@DPTR
        MOV       DPH,A
        MOV       DPL,R3
        INC       DPTR
        INC       DPTR
        MOVX      A,@DPTR
        ADD       A,R0
        MOV       R3,A
        INC       DPTR
        MOVX      A,@DPTR
        ADDC      A,#0x0
        MOV       DPL,R3
        MOV       DPH,A
        INC       DPTR
        POP       A
          CFI CFA_SP SP+0
        MOVX      @DPTR,A
        INC       R2
??MT_UartProcessZToolData1_2:
        MOV       A,R2
        CLR       C
        SUBB      A,R7
        JC        ??MT_UartProcessZToolData1_3
//  193     osal_msg_send( App_TaskID, (byte *)pMsg ); // 登记任务并发往上层
        ; Setup parameters for call to function osal_msg_send
        MOV       DPTR,#pMsg
        LCALL     ?Subroutine3 & 0xFFFF
//  194     osal_msg_deallocate ( (uint8 *)pMsg ); // 释放内存
??CrossCallReturnLabel_4:
        ; Setup parameters for call to function osal_msg_deallocate
        MOV       DPTR,#pMsg
        LCALL     ?Subroutine6 & 0xFFFF
//  195   }
//  196 }
??CrossCallReturnLabel_10:
        MOV       A,#-0x80
        LCALL     ?DEALLOC_XSTACK8
          CFI CFA_XSP16 add(XSP16, 12)
        MOV       R7,#0x4
        LJMP      ?BANKED_LEAVE_XDATA
          CFI EndBlock cfiBlock4
//  197 
//  198 #if defined (ZTOOL_P1) || defined (ZTOOL_P2)
//  199 /***************************************************************************************************
//  200  * @fn      MT_UartProcessZToolData
//  201  *
//  202  * @brief   | SOP | CMD |Data Length| cmdEP | Address | EndPoint |  Data  | FSC |
//  203  *          |  1  |  2  |    1      |   2   |    2    |     1    | 1 ~119 |  1  |
//  204  *
//  205  *          Parses the data and determine either is SPI or just simply serial data
//  206  *          then send the data to correct place (MT or APP)
//  207  *
//  208  * @param   port     - UART port
//  209  *          event    - Event that causes the callback
//  210  *
//  211  *
//  212  * @return  None
//  213  ***************************************************************************************************/

        RSEG BANKED_CODE:HUGECODE:NOROOT(0)
//  214 void MT_UartProcessZToolData ( uint8 port, uint8 event )
MT_UartProcessZToolData:
          CFI Block cfiBlock5 Using cfiCommon0
          CFI Function MT_UartProcessZToolData
        CODE
//  215 {
        FUNCALL MT_UartProcessZToolData, Hal_UART_RxBufLen
        LOCFRAME ISTACK, 0, STACK
        LOCFRAME PSTACK, 0, STACK
        LOCFRAME XSTACK, 11, STACK
        LOCFRAME IOVERLAY, 0, STATIC
        LOCFRAME DOVERLAY, 0, STATIC
        ARGFRAME ISTACK, 0, STACK
        ARGFRAME PSTACK, 0, STACK
        ARGFRAME XSTACK, 11, STACK
        ARGFRAME IOVERLAY, 0, STATIC
        ARGFRAME DOVERLAY, 0, STATIC
        FUNCALL MT_UartProcessZToolData, HalUARTRead
        LOCFRAME ISTACK, 0, STACK
        LOCFRAME PSTACK, 0, STACK
        LOCFRAME XSTACK, 11, STACK
        LOCFRAME IOVERLAY, 0, STATIC
        LOCFRAME DOVERLAY, 0, STATIC
        ARGFRAME ISTACK, 0, STACK
        ARGFRAME PSTACK, 0, STACK
        ARGFRAME XSTACK, 11, STACK
        ARGFRAME IOVERLAY, 0, STATIC
        ARGFRAME DOVERLAY, 0, STATIC
        FUNCALL MT_UartProcessZToolData, osal_msg_allocate
        LOCFRAME ISTACK, 0, STACK
        LOCFRAME PSTACK, 0, STACK
        LOCFRAME XSTACK, 11, STACK
        LOCFRAME IOVERLAY, 0, STATIC
        LOCFRAME DOVERLAY, 0, STATIC
        ARGFRAME ISTACK, 0, STACK
        ARGFRAME PSTACK, 0, STACK
        ARGFRAME XSTACK, 11, STACK
        ARGFRAME IOVERLAY, 0, STATIC
        ARGFRAME DOVERLAY, 0, STATIC
        FUNCALL MT_UartProcessZToolData, Hal_UART_RxBufLen
        LOCFRAME ISTACK, 0, STACK
        LOCFRAME PSTACK, 0, STACK
        LOCFRAME XSTACK, 11, STACK
        LOCFRAME IOVERLAY, 0, STATIC
        LOCFRAME DOVERLAY, 0, STATIC
        ARGFRAME ISTACK, 0, STACK
        ARGFRAME PSTACK, 0, STACK
        ARGFRAME XSTACK, 11, STACK
        ARGFRAME IOVERLAY, 0, STATIC
        ARGFRAME DOVERLAY, 0, STATIC
        FUNCALL MT_UartProcessZToolData, HalUARTRead
        LOCFRAME ISTACK, 0, STACK
        LOCFRAME PSTACK, 0, STACK
        LOCFRAME XSTACK, 11, STACK
        LOCFRAME IOVERLAY, 0, STATIC
        LOCFRAME DOVERLAY, 0, STATIC
        ARGFRAME ISTACK, 0, STACK
        ARGFRAME PSTACK, 0, STACK
        ARGFRAME XSTACK, 11, STACK
        ARGFRAME IOVERLAY, 0, STATIC
        ARGFRAME DOVERLAY, 0, STATIC
        FUNCALL MT_UartProcessZToolData, HalUARTRead
        LOCFRAME ISTACK, 0, STACK
        LOCFRAME PSTACK, 0, STACK
        LOCFRAME XSTACK, 11, STACK
        LOCFRAME IOVERLAY, 0, STATIC
        LOCFRAME DOVERLAY, 0, STATIC
        ARGFRAME ISTACK, 0, STACK
        ARGFRAME PSTACK, 0, STACK
        ARGFRAME XSTACK, 11, STACK
        ARGFRAME IOVERLAY, 0, STATIC
        ARGFRAME DOVERLAY, 0, STATIC
        FUNCALL MT_UartProcessZToolData, MT_UartCalcFCS
        LOCFRAME ISTACK, 0, STACK
        LOCFRAME PSTACK, 0, STACK
        LOCFRAME XSTACK, 11, STACK
        LOCFRAME IOVERLAY, 0, STATIC
        LOCFRAME DOVERLAY, 0, STATIC
        ARGFRAME ISTACK, 0, STACK
        ARGFRAME PSTACK, 0, STACK
        ARGFRAME XSTACK, 11, STACK
        ARGFRAME IOVERLAY, 0, STATIC
        ARGFRAME DOVERLAY, 0, STATIC
        FUNCALL MT_UartProcessZToolData, MT_UartCalcFCS
        LOCFRAME ISTACK, 0, STACK
        LOCFRAME PSTACK, 0, STACK
        LOCFRAME XSTACK, 11, STACK
        LOCFRAME IOVERLAY, 0, STATIC
        LOCFRAME DOVERLAY, 0, STATIC
        ARGFRAME ISTACK, 0, STACK
        ARGFRAME PSTACK, 0, STACK
        ARGFRAME XSTACK, 11, STACK
        ARGFRAME IOVERLAY, 0, STATIC
        ARGFRAME DOVERLAY, 0, STATIC
        FUNCALL MT_UartProcessZToolData, osal_msg_send
        LOCFRAME ISTACK, 0, STACK
        LOCFRAME PSTACK, 0, STACK
        LOCFRAME XSTACK, 11, STACK
        LOCFRAME IOVERLAY, 0, STATIC
        LOCFRAME DOVERLAY, 0, STATIC
        ARGFRAME ISTACK, 0, STACK
        ARGFRAME PSTACK, 0, STACK
        ARGFRAME XSTACK, 11, STACK
        ARGFRAME IOVERLAY, 0, STATIC
        ARGFRAME DOVERLAY, 0, STATIC
        FUNCALL MT_UartProcessZToolData, osal_msg_deallocate
        LOCFRAME ISTACK, 0, STACK
        LOCFRAME PSTACK, 0, STACK
        LOCFRAME XSTACK, 11, STACK
        LOCFRAME IOVERLAY, 0, STATIC
        LOCFRAME DOVERLAY, 0, STATIC
        ARGFRAME ISTACK, 0, STACK
        ARGFRAME PSTACK, 0, STACK
        ARGFRAME XSTACK, 11, STACK
        ARGFRAME IOVERLAY, 0, STATIC
        ARGFRAME DOVERLAY, 0, STATIC
        REQUIRE ?V0
        REQUIRE ?V1
        MOV       A,#-0xa
        LCALL     ?BANKED_ENTER_XDATA
          CFI DPH0 load(1, XDATA, add(CFA_XSP16, literal(-1)))
          CFI DPL0 load(1, XDATA, add(CFA_XSP16, literal(-2)))
          CFI ?BRET_EXT load(1, XDATA, add(CFA_XSP16, literal(-3)))
          CFI ?RET_HIGH load(1, XDATA, add(CFA_XSP16, literal(-4)))
          CFI ?RET_LOW load(1, XDATA, add(CFA_XSP16, literal(-5)))
          CFI R7 load(1, XDATA, add(CFA_XSP16, literal(-6)))
          CFI V1 load(1, XDATA, add(CFA_XSP16, literal(-7)))
          CFI V0 load(1, XDATA, add(CFA_XSP16, literal(-8)))
          CFI VB load(1, XDATA, add(CFA_XSP16, literal(-9)))
          CFI R6 load(1, XDATA, add(CFA_XSP16, literal(-10)))
          CFI CFA_SP SP+0
          CFI CFA_XSP16 add(XSP16, 10)
        ; Saved register size: 10
        ; Auto size: 1
        MOV       A,#-0x1
        LCALL     ?ALLOC_XSTACK8
          CFI CFA_XSP16 add(XSP16, 11)
        MOV       A,R1
        MOV       R6,A
//  216     uint8  ch;
//  217     uint8  bytesInRxBuffer;
//  218 
//  219     (void)event;  // Intentionally unreferenced parameter
        SJMP      ??MT_UartProcessZToolData_0
//  220 
//  221     while (Hal_UART_RxBufLen(port))
//  222     {
//  223         HalUARTRead (port, &ch, 1);
//  224 
//  225         switch(state)
//  226         {
//  227         case SOP_STATE:
//  228             if(ch == MT_UART_SOF)
//  229                 state = LEN_STATE;
//  230             break;
//  231         case LEN_STATE:
//  232             if(ch < 7)
//  233             {
//  234                 // invalid length field
//  235                 state = SOP_STATE;
//  236                 break;
//  237             }
//  238             pMsg = (mtOSALSerialData_t *)osal_msg_allocate(sizeof(mtOSALSerialData_t) +
//  239                                                            ch + 3);//SOP+LEN+FSC
//  240             tempDataLen = 0;
//  241             /* Allocate memory for the data */
//  242 //            pMsg = (mtOSALSerialData_t *)osal_msg_allocate(sizeof(mtOSALSerialData_t) + sizeof(mtUserSerialMsg_t) +
//  243 //                                                           ch - 5);
//  244             if (pMsg)
//  245             {
//  246                 /* Fill up what we can */
//  247                 pMsg->hdr.event = CMD_SERIAL_MSG;
??MT_UartProcessZToolData_1:
        MOVX      A,@DPTR
        LCALL     ?Subroutine1 & 0xFFFF
//  248                 pMsg->msg = (uint8*)(pMsg + 1);
//  249                 pMsgContent = (mtUserSerialMsg_t *)pMsg->msg;
??CrossCallReturnLabel_1:
        MOV       DPTR,#pMsgContent
        MOV       A,R0
        MOVX      @DPTR,A
        INC       DPTR
        MOV       A,R1
        MOVX      @DPTR,A
//  250                 pMsgContent->sop = MT_UART_SOF;
        MOV       DPH,A
        MOV       DPL,R0
        INC       DPTR
        MOV       A,#0x2
        MOVX      @DPTR,A
//  251                 pMsgContent->len = ch;
        MOV       DPL,?XSP + 0
        MOV       DPH,?XSP + 1
        MOVX      A,@DPTR
        PUSH      A
          CFI CFA_SP SP+-1
        LCALL     ?Subroutine8 & 0xFFFF
??CrossCallReturnLabel_15:
        INC       DPTR
        INC       DPTR
        POP       A
          CFI CFA_SP SP+0
        MOVX      @DPTR,A
//  252                 state = DATA_STATE;
        MOV       DPTR,#state
        MOV       A,#0x2
??MT_UartProcessZToolData_2:
        MOVX      @DPTR,A
//  253             }
//  254             else
//  255             {
//  256                 pMsgContent = NULL;
//  257                 state = SOP_STATE;
//  258                 return;
//  259             }
//  260             break;
??MT_UartProcessZToolData_0:
        ; Setup parameters for call to function Hal_UART_RxBufLen
        MOV       A,R6
        MOV       R1,A
        LCALL     `??Hal_UART_RxBufLen::?relay`; Banked call to: Hal_UART_RxBufLen
        MOV       A,R2
        ORL       A,R3
        JNZ       $+5
        LJMP      ??MT_UartProcessZToolData_3 & 0xFFFF
        ; Setup parameters for call to function HalUARTRead
        MOV       R4,#0x1
        MOV       R5,#0x0
        MOV       R2,?XSP + 0
        MOV       R3,?XSP + 1
        MOV       A,R6
        MOV       R1,A
        LCALL     `??HalUARTRead::?relay`; Banked call to: HalUARTRead
        MOV       DPTR,#state
        MOVX      A,@DPTR
        JZ        ??MT_UartProcessZToolData_4
        DEC       A
        JZ        ??MT_UartProcessZToolData_5
        DEC       A
        JZ        ??MT_UartProcessZToolData_6
        DEC       A
        JNZ       $+5
        LJMP      ??MT_UartProcessZToolData_7 & 0xFFFF
        SJMP      ??MT_UartProcessZToolData_0
??MT_UartProcessZToolData_4:
        MOV       DPL,?XSP + 0
        MOV       DPH,?XSP + 1
        MOVX      A,@DPTR
        XRL       A,#0x2
        JNZ       ??MT_UartProcessZToolData_0
        MOV       DPTR,#state
        MOV       A,#0x1
        SJMP      ??MT_UartProcessZToolData_2
??MT_UartProcessZToolData_5:
        MOV       DPL,?XSP + 0
        MOV       DPH,?XSP + 1
        MOVX      A,@DPTR
        CLR       C
        SUBB      A,#0x7
        JNC       $+5
        LJMP      ??CrossCallReturnLabel_11 & 0xFFFF
        ; Setup parameters for call to function osal_msg_allocate
        MOVX      A,@DPTR
        ADD       A,#0x7
        LCALL     ?Subroutine4 & 0xFFFF
??CrossCallReturnLabel_7:
        MOV       DPTR,#tempDataLen
        CLR       A
        MOVX      @DPTR,A
        MOV       DPTR,#pMsg + 1
        MOVX      A,@DPTR
        MOV       R1,A
        MOV       A,R2
        ORL       A,R1
        JZ        $+5
        LJMP      ??MT_UartProcessZToolData_1 & 0xFFFF
        MOV       DPTR,#pMsgContent
        CLR       A
        MOVX      @DPTR,A
        INC       DPTR
        MOVX      @DPTR,A
        MOV       DPTR,#state
        MOVX      @DPTR,A
        LJMP      ??MT_UartProcessZToolData_3 & 0xFFFF
//  261         case DATA_STATE:
//  262             pMsgContent->dataBody[tempDataLen++] = ch;
??MT_UartProcessZToolData_6:
        MOV       DPL,?XSP + 0
        MOV       DPH,?XSP + 1
        MOVX      A,@DPTR
        PUSH      A
          CFI CFA_SP SP+-1
        MOV       DPTR,#tempDataLen
        LCALL     ?Subroutine7 & 0xFFFF
??CrossCallReturnLabel_12:
        LCALL     ?Subroutine9 & 0xFFFF
??CrossCallReturnLabel_17:
        POP       A
          CFI CFA_SP SP+0
        MOVX      @DPTR,A
        MOV       DPTR,#tempDataLen
        MOVX      A,@DPTR
        INC       A
        MOVX      @DPTR,A
//  263             /* Check number of bytes left in the Rx buffer */
//  264             bytesInRxBuffer = Hal_UART_RxBufLen(port);
        ; Setup parameters for call to function Hal_UART_RxBufLen
        MOV       A,R6
        MOV       R1,A
        LCALL     `??Hal_UART_RxBufLen::?relay`; Banked call to: Hal_UART_RxBufLen
        MOV       A,R2
        MOV       R7,A
//  265 
//  266             /* If the remain of the data is there, read them all, otherwise, just read enough */
//  267             if (bytesInRxBuffer <= pMsgContent->len - tempDataLen)
        LCALL     ?Subroutine5 & 0xFFFF
??CrossCallReturnLabel_8:
        MOV       R0,A
        MOV       DPTR,#tempDataLen
        MOVX      A,@DPTR
        MOV       R2,A
        MOV       A,R0
        CLR       C
        SUBB      A,R2
        MOV       R0,A
        SUBB      A,0xE0 /* A   */
        MOV       R1,A
        MOV       A,R7
        MOV       R2,A
        CLR       C
        MOV       A,R0
        SUBB      A,R2
        MOV       A,R1
        SUBB      A,#0x0
        MOV       C,0xD0 /* PSW */.2
        XRL       A,PSW
        RLC       A
        JC        ??MT_UartProcessZToolData_8
//  268             {
//  269                 HalUARTRead (port, &pMsgContent->dataBody[tempDataLen], bytesInRxBuffer);
        ; Setup parameters for call to function HalUARTRead
        MOV       A,R7
        MOV       R4,A
        MOV       R5,#0x0
        MOVX      A,@DPTR
        MOV       R0,A
        LCALL     ?Subroutine2 & 0xFFFF
//  270                 tempDataLen += bytesInRxBuffer;
??CrossCallReturnLabel_2:
        MOV       DPTR,#tempDataLen
        MOVX      A,@DPTR
        ADD       A,R7
        SJMP      ??MT_UartProcessZToolData_9
//  271             }
//  272             else
//  273             {
//  274                 HalUARTRead (port, &pMsgContent->dataBody[tempDataLen], pMsgContent->len - tempDataLen);
??MT_UartProcessZToolData_8:
        LCALL     ?Subroutine7 & 0xFFFF
??CrossCallReturnLabel_13:
        MOV       R2,A
        INC       DPTR
        MOVX      A,@DPTR
        MOV       DPH,A
        MOV       DPL,R2
        INC       DPTR
        INC       DPTR
        MOVX      A,@DPTR
        CLR       C
        SUBB      A,R0
        MOV       R4,A
        SUBB      A,0xE0 /* A   */
        MOV       R5,A
        LCALL     ?Subroutine2 & 0xFFFF
//  275                 tempDataLen += (pMsgContent->len - tempDataLen);
??CrossCallReturnLabel_3:
        LCALL     ?Subroutine5 & 0xFFFF
//  276             }
??CrossCallReturnLabel_9:
        MOV       DPTR,#tempDataLen
??MT_UartProcessZToolData_9:
        MOVX      @DPTR,A
//  277             /* If number of bytes read is equal to data length, time to move on to FCS */
//  278             if ( tempDataLen == pMsgContent->len )
        LCALL     ?Subroutine7 & 0xFFFF
??CrossCallReturnLabel_14:
        MOV       R1,A
        INC       DPTR
        MOVX      A,@DPTR
        MOV       DPH,A
        MOV       DPL,R1
        INC       DPTR
        INC       DPTR
        MOVX      A,@DPTR
        XRL       A,R0
        JZ        $+5
        LJMP      ??MT_UartProcessZToolData_0 & 0xFFFF
//  279                 state = FCS_STATE;
        MOV       DPTR,#state
        MOV       A,#0x3
        LJMP      ??MT_UartProcessZToolData_2 & 0xFFFF
//  280             break;
//  281         case FCS_STATE:
//  282             /* Make sure it's correct */
//  283             {
//  284                 pMsgContent->fsc = ch;
??MT_UartProcessZToolData_7:
        MOV       DPL,?XSP + 0
        MOV       DPH,?XSP + 1
        MOVX      A,@DPTR
        PUSH      A
          CFI CFA_SP SP+-1
        LCALL     ?Subroutine8 & 0xFFFF
??CrossCallReturnLabel_16:
        POP       A
          CFI CFA_SP SP+0
        MOVX      @DPTR,A
//  285                 uint8 fcs = MT_UartCalcFCS(0, &pMsgContent->len, 1);
        MOV       DPTR,#pMsgContent
        MOVX      A,@DPTR
        ADD       A,#0x2
        MOV       ?V0,A
        INC       DPTR
        MOVX      A,@DPTR
        ADDC      A,#0x0
        MOV       ?V1,A
        ; Setup parameters for call to function MT_UartCalcFCS
        MOV       R4,#0x1
        MOV       R2,?V0
        MOV       R3,A
        MOV       R1,#0x0
        LCALL     `??MT_UartCalcFCS::?relay`; Banked call to: MT_UartCalcFCS
        MOV       A,R1
        MOV       R1,A
//  286                 fcs = MT_UartCalcFCS(fcs, pMsgContent->dataBody, pMsgContent->len);
        ; Setup parameters for call to function MT_UartCalcFCS
        MOV       DPL,?V0
        MOV       DPH,?V1
        MOVX      A,@DPTR
        MOV       R4,A
        MOV       DPTR,#pMsgContent
        MOVX      A,@DPTR
        ADD       A,#0x3
        MOV       R2,A
        INC       DPTR
        MOVX      A,@DPTR
        ADDC      A,#0x0
        MOV       R3,A
        LCALL     `??MT_UartCalcFCS::?relay`; Banked call to: MT_UartCalcFCS
        MOV       A,R1
        MOV       R1,A
//  287                 if(fcs == ch)
        MOV       DPL,?XSP + 0
        MOV       DPH,?XSP + 1
        MOVX      A,@DPTR
        XRL       A,R1
        MOV       DPTR,#pMsg
        JNZ       ??MT_UartProcessZToolData_10
//  288                     osal_msg_send(App_TaskID, (byte *)pMsg);
        ; Setup parameters for call to function osal_msg_send
        LCALL     ?Subroutine3 & 0xFFFF
??CrossCallReturnLabel_5:
        SJMP      ??CrossCallReturnLabel_11
//  289                 else
//  290                     osal_msg_deallocate((uint8 *)pMsg);
??MT_UartProcessZToolData_10:
        ; Setup parameters for call to function osal_msg_deallocate
        LCALL     ?Subroutine6 & 0xFFFF
//  291             }
//  292             /* Reset the state, send or discard the buffers at this point */
//  293             state = SOP_STATE;
??CrossCallReturnLabel_11:
        MOV       DPTR,#state
        CLR       A
        LJMP      ??MT_UartProcessZToolData_2 & 0xFFFF
//  294             break;
//  295         default:
//  296             break;
//  297         }
//  298     }
//  299 }
??MT_UartProcessZToolData_3:
        MOV       A,#0x1
        LCALL     ?DEALLOC_XSTACK8
          CFI CFA_XSP16 add(XSP16, 10)
        MOV       R7,#0x2
        LJMP      ?BANKED_LEAVE_XDATA
          CFI EndBlock cfiBlock5

        RSEG BANKED_CODE:HUGECODE:NOROOT(0)
?Subroutine8:
          CFI Block cfiCond6 Using cfiCommon0
          CFI Function MT_UartProcessZToolData
          CFI Conditional ??CrossCallReturnLabel_15
          CFI R6 load(1, XDATA, add(CFA_XSP16, literal(-10)))
          CFI VB load(1, XDATA, add(CFA_XSP16, literal(-9)))
          CFI V0 load(1, XDATA, add(CFA_XSP16, literal(-8)))
          CFI V1 load(1, XDATA, add(CFA_XSP16, literal(-7)))
          CFI R7 load(1, XDATA, add(CFA_XSP16, literal(-6)))
          CFI ?RET_LOW load(1, XDATA, add(CFA_XSP16, literal(-5)))
          CFI ?RET_HIGH load(1, XDATA, add(CFA_XSP16, literal(-4)))
          CFI ?BRET_EXT load(1, XDATA, add(CFA_XSP16, literal(-3)))
          CFI DPL0 load(1, XDATA, add(CFA_XSP16, literal(-2)))
          CFI DPH0 load(1, XDATA, add(CFA_XSP16, literal(-1)))
          CFI CFA_XSP16 add(XSP16, 11)
          CFI Block cfiCond7 Using cfiCommon0
          CFI (cfiCond7) Function MT_UartProcessZToolData
          CFI (cfiCond7) Conditional ??CrossCallReturnLabel_16
          CFI (cfiCond7) R6 load(1, XDATA, add(CFA_XSP16, literal(-10)))
          CFI (cfiCond7) VB load(1, XDATA, add(CFA_XSP16, literal(-9)))
          CFI (cfiCond7) V0 load(1, XDATA, add(CFA_XSP16, literal(-8)))
          CFI (cfiCond7) V1 load(1, XDATA, add(CFA_XSP16, literal(-7)))
          CFI (cfiCond7) R7 load(1, XDATA, add(CFA_XSP16, literal(-6)))
          CFI (cfiCond7) ?RET_LOW load(1, XDATA, add(CFA_XSP16, literal(-5)))
          CFI (cfiCond7) ?RET_HIGH load(1, XDATA, add(CFA_XSP16, literal(-4)))
          CFI (cfiCond7) ?BRET_EXT load(1, XDATA, add(CFA_XSP16, literal(-3)))
          CFI (cfiCond7) DPL0 load(1, XDATA, add(CFA_XSP16, literal(-2)))
          CFI (cfiCond7) DPH0 load(1, XDATA, add(CFA_XSP16, literal(-1)))
          CFI (cfiCond7) CFA_XSP16 add(XSP16, 11)
          CFI Block cfiPicker8 Using cfiCommon1
          CFI (cfiPicker8) NoFunction
          CFI (cfiPicker8) Picker
        LCALL     ?Subroutine10 & 0xFFFF
??CrossCallReturnLabel_20:
        RET
          CFI EndBlock cfiCond6
          CFI EndBlock cfiCond7
          CFI EndBlock cfiPicker8

        RSEG BANKED_CODE:HUGECODE:NOROOT(0)
?Subroutine10:
          CFI Block cfiCond9 Using cfiCommon0
          CFI Function MT_UartProcessZToolData
          CFI Conditional ??CrossCallReturnLabel_20, ??CrossCallReturnLabel_15
          CFI R6 load(1, XDATA, add(CFA_XSP16, literal(-10)))
          CFI VB load(1, XDATA, add(CFA_XSP16, literal(-9)))
          CFI V0 load(1, XDATA, add(CFA_XSP16, literal(-8)))
          CFI V1 load(1, XDATA, add(CFA_XSP16, literal(-7)))
          CFI R7 load(1, XDATA, add(CFA_XSP16, literal(-6)))
          CFI ?RET_LOW load(1, XDATA, add(CFA_XSP16, literal(-5)))
          CFI ?RET_HIGH load(1, XDATA, add(CFA_XSP16, literal(-4)))
          CFI ?BRET_EXT load(1, XDATA, add(CFA_XSP16, literal(-3)))
          CFI DPL0 load(1, XDATA, add(CFA_XSP16, literal(-2)))
          CFI DPH0 load(1, XDATA, add(CFA_XSP16, literal(-1)))
          CFI CFA_SP SP+-5
          CFI CFA_XSP16 add(XSP16, 11)
          CFI Block cfiCond10 Using cfiCommon0
          CFI (cfiCond10) Function MT_UartProcessZToolData
          CFI (cfiCond10) Conditional ??CrossCallReturnLabel_20, ??CrossCallReturnLabel_16
          CFI (cfiCond10) R6 load(1, XDATA, add(CFA_XSP16, literal(-10)))
          CFI (cfiCond10) VB load(1, XDATA, add(CFA_XSP16, literal(-9)))
          CFI (cfiCond10) V0 load(1, XDATA, add(CFA_XSP16, literal(-8)))
          CFI (cfiCond10) V1 load(1, XDATA, add(CFA_XSP16, literal(-7)))
          CFI (cfiCond10) R7 load(1, XDATA, add(CFA_XSP16, literal(-6)))
          CFI (cfiCond10) ?RET_LOW load(1, XDATA, add(CFA_XSP16, literal(-5)))
          CFI (cfiCond10) ?RET_HIGH load(1, XDATA, add(CFA_XSP16, literal(-4)))
          CFI (cfiCond10) ?BRET_EXT load(1, XDATA, add(CFA_XSP16, literal(-3)))
          CFI (cfiCond10) DPL0 load(1, XDATA, add(CFA_XSP16, literal(-2)))
          CFI (cfiCond10) DPH0 load(1, XDATA, add(CFA_XSP16, literal(-1)))
          CFI (cfiCond10) CFA_SP SP+-5
          CFI (cfiCond10) CFA_XSP16 add(XSP16, 11)
          CFI Block cfiCond11 Using cfiCommon0
          CFI (cfiCond11) Function MT_UartProcessZToolData
          CFI (cfiCond11) Conditional ??CrossCallReturnLabel_19, ??CrossCallReturnLabel_8
          CFI (cfiCond11) R6 load(1, XDATA, add(CFA_XSP16, literal(-10)))
          CFI (cfiCond11) VB load(1, XDATA, add(CFA_XSP16, literal(-9)))
          CFI (cfiCond11) V0 load(1, XDATA, add(CFA_XSP16, literal(-8)))
          CFI (cfiCond11) V1 load(1, XDATA, add(CFA_XSP16, literal(-7)))
          CFI (cfiCond11) R7 load(1, XDATA, add(CFA_XSP16, literal(-6)))
          CFI (cfiCond11) ?RET_LOW load(1, XDATA, add(CFA_XSP16, literal(-5)))
          CFI (cfiCond11) ?RET_HIGH load(1, XDATA, add(CFA_XSP16, literal(-4)))
          CFI (cfiCond11) ?BRET_EXT load(1, XDATA, add(CFA_XSP16, literal(-3)))
          CFI (cfiCond11) DPL0 load(1, XDATA, add(CFA_XSP16, literal(-2)))
          CFI (cfiCond11) DPH0 load(1, XDATA, add(CFA_XSP16, literal(-1)))
          CFI (cfiCond11) CFA_SP SP+-4
          CFI (cfiCond11) CFA_XSP16 add(XSP16, 11)
          CFI Block cfiCond12 Using cfiCommon0
          CFI (cfiCond12) Function MT_UartProcessZToolData
          CFI (cfiCond12) Conditional ??CrossCallReturnLabel_19, ??CrossCallReturnLabel_9
          CFI (cfiCond12) R6 load(1, XDATA, add(CFA_XSP16, literal(-10)))
          CFI (cfiCond12) VB load(1, XDATA, add(CFA_XSP16, literal(-9)))
          CFI (cfiCond12) V0 load(1, XDATA, add(CFA_XSP16, literal(-8)))
          CFI (cfiCond12) V1 load(1, XDATA, add(CFA_XSP16, literal(-7)))
          CFI (cfiCond12) R7 load(1, XDATA, add(CFA_XSP16, literal(-6)))
          CFI (cfiCond12) ?RET_LOW load(1, XDATA, add(CFA_XSP16, literal(-5)))
          CFI (cfiCond12) ?RET_HIGH load(1, XDATA, add(CFA_XSP16, literal(-4)))
          CFI (cfiCond12) ?BRET_EXT load(1, XDATA, add(CFA_XSP16, literal(-3)))
          CFI (cfiCond12) DPL0 load(1, XDATA, add(CFA_XSP16, literal(-2)))
          CFI (cfiCond12) DPH0 load(1, XDATA, add(CFA_XSP16, literal(-1)))
          CFI (cfiCond12) CFA_SP SP+-4
          CFI (cfiCond12) CFA_XSP16 add(XSP16, 11)
          CFI Block cfiPicker13 Using cfiCommon1
          CFI (cfiPicker13) NoFunction
          CFI (cfiPicker13) Picker
        MOV       DPTR,#pMsgContent
        MOVX      A,@DPTR
        MOV       R0,A
        INC       DPTR
        MOVX      A,@DPTR
        MOV       DPH,A
        MOV       DPL,R0
        RET
          CFI EndBlock cfiCond9
          CFI EndBlock cfiCond10
          CFI EndBlock cfiCond11
          CFI EndBlock cfiCond12
          CFI EndBlock cfiPicker13

        RSEG BANKED_CODE:HUGECODE:NOROOT(0)
?Subroutine7:
          CFI Block cfiCond14 Using cfiCommon0
          CFI Function MT_UartProcessZToolData
          CFI Conditional ??CrossCallReturnLabel_12
          CFI R6 load(1, XDATA, add(CFA_XSP16, literal(-10)))
          CFI VB load(1, XDATA, add(CFA_XSP16, literal(-9)))
          CFI V0 load(1, XDATA, add(CFA_XSP16, literal(-8)))
          CFI V1 load(1, XDATA, add(CFA_XSP16, literal(-7)))
          CFI R7 load(1, XDATA, add(CFA_XSP16, literal(-6)))
          CFI ?RET_LOW load(1, XDATA, add(CFA_XSP16, literal(-5)))
          CFI ?RET_HIGH load(1, XDATA, add(CFA_XSP16, literal(-4)))
          CFI ?BRET_EXT load(1, XDATA, add(CFA_XSP16, literal(-3)))
          CFI DPL0 load(1, XDATA, add(CFA_XSP16, literal(-2)))
          CFI DPH0 load(1, XDATA, add(CFA_XSP16, literal(-1)))
          CFI CFA_XSP16 add(XSP16, 11)
          CFI Block cfiCond15 Using cfiCommon0
          CFI (cfiCond15) Function MT_UartProcessZToolData
          CFI (cfiCond15) Conditional ??CrossCallReturnLabel_13
          CFI (cfiCond15) R6 load(1, XDATA, add(CFA_XSP16, literal(-10)))
          CFI (cfiCond15) VB load(1, XDATA, add(CFA_XSP16, literal(-9)))
          CFI (cfiCond15) V0 load(1, XDATA, add(CFA_XSP16, literal(-8)))
          CFI (cfiCond15) V1 load(1, XDATA, add(CFA_XSP16, literal(-7)))
          CFI (cfiCond15) R7 load(1, XDATA, add(CFA_XSP16, literal(-6)))
          CFI (cfiCond15) ?RET_LOW load(1, XDATA, add(CFA_XSP16, literal(-5)))
          CFI (cfiCond15) ?RET_HIGH load(1, XDATA, add(CFA_XSP16, literal(-4)))
          CFI (cfiCond15) ?BRET_EXT load(1, XDATA, add(CFA_XSP16, literal(-3)))
          CFI (cfiCond15) DPL0 load(1, XDATA, add(CFA_XSP16, literal(-2)))
          CFI (cfiCond15) DPH0 load(1, XDATA, add(CFA_XSP16, literal(-1)))
          CFI (cfiCond15) CFA_SP SP+-2
          CFI (cfiCond15) CFA_XSP16 add(XSP16, 11)
          CFI Block cfiCond16 Using cfiCommon0
          CFI (cfiCond16) Function MT_UartProcessZToolData
          CFI (cfiCond16) Conditional ??CrossCallReturnLabel_14
          CFI (cfiCond16) R6 load(1, XDATA, add(CFA_XSP16, literal(-10)))
          CFI (cfiCond16) VB load(1, XDATA, add(CFA_XSP16, literal(-9)))
          CFI (cfiCond16) V0 load(1, XDATA, add(CFA_XSP16, literal(-8)))
          CFI (cfiCond16) V1 load(1, XDATA, add(CFA_XSP16, literal(-7)))
          CFI (cfiCond16) R7 load(1, XDATA, add(CFA_XSP16, literal(-6)))
          CFI (cfiCond16) ?RET_LOW load(1, XDATA, add(CFA_XSP16, literal(-5)))
          CFI (cfiCond16) ?RET_HIGH load(1, XDATA, add(CFA_XSP16, literal(-4)))
          CFI (cfiCond16) ?BRET_EXT load(1, XDATA, add(CFA_XSP16, literal(-3)))
          CFI (cfiCond16) DPL0 load(1, XDATA, add(CFA_XSP16, literal(-2)))
          CFI (cfiCond16) DPH0 load(1, XDATA, add(CFA_XSP16, literal(-1)))
          CFI (cfiCond16) CFA_SP SP+-2
          CFI (cfiCond16) CFA_XSP16 add(XSP16, 11)
          CFI Block cfiPicker17 Using cfiCommon1
          CFI (cfiPicker17) NoFunction
          CFI (cfiPicker17) Picker
        MOVX      A,@DPTR
        MOV       R0,A
        ; Setup parameters for call to function HalUARTRead
        MOV       DPTR,#pMsgContent
        MOVX      A,@DPTR
        RET
          CFI EndBlock cfiCond14
          CFI EndBlock cfiCond15
          CFI EndBlock cfiCond16
          CFI EndBlock cfiPicker17

        RSEG BANKED_CODE:HUGECODE:NOROOT(0)
?Subroutine6:
          CFI Block cfiCond18 Using cfiCommon0
          CFI Function MT_UartProcessZToolData1
          CFI Conditional ??CrossCallReturnLabel_10
          CFI R6 load(1, XDATA, add(CFA_XSP16, literal(-12)))
          CFI VB load(1, XDATA, add(CFA_XSP16, literal(-11)))
          CFI V0 load(1, XDATA, add(CFA_XSP16, literal(-10)))
          CFI V1 load(1, XDATA, add(CFA_XSP16, literal(-9)))
          CFI V2 load(1, XDATA, add(CFA_XSP16, literal(-8)))
          CFI V3 load(1, XDATA, add(CFA_XSP16, literal(-7)))
          CFI R7 load(1, XDATA, add(CFA_XSP16, literal(-6)))
          CFI ?RET_LOW load(1, XDATA, add(CFA_XSP16, literal(-5)))
          CFI ?RET_HIGH load(1, XDATA, add(CFA_XSP16, literal(-4)))
          CFI ?BRET_EXT load(1, XDATA, add(CFA_XSP16, literal(-3)))
          CFI DPL0 load(1, XDATA, add(CFA_XSP16, literal(-2)))
          CFI DPH0 load(1, XDATA, add(CFA_XSP16, literal(-1)))
          CFI CFA_SP SP+-2
          CFI CFA_XSP16 add(XSP16, 140)
          CFI Block cfiCond19 Using cfiCommon0
          CFI (cfiCond19) Function MT_UartProcessZToolData
          CFI (cfiCond19) Conditional ??CrossCallReturnLabel_11
          CFI (cfiCond19) R6 load(1, XDATA, add(CFA_XSP16, literal(-10)))
          CFI (cfiCond19) VB load(1, XDATA, add(CFA_XSP16, literal(-9)))
          CFI (cfiCond19) V0 load(1, XDATA, add(CFA_XSP16, literal(-8)))
          CFI (cfiCond19) V1 load(1, XDATA, add(CFA_XSP16, literal(-7)))
          CFI (cfiCond19) R7 load(1, XDATA, add(CFA_XSP16, literal(-6)))
          CFI (cfiCond19) ?RET_LOW load(1, XDATA, add(CFA_XSP16, literal(-5)))
          CFI (cfiCond19) ?RET_HIGH load(1, XDATA, add(CFA_XSP16, literal(-4)))
          CFI (cfiCond19) ?BRET_EXT load(1, XDATA, add(CFA_XSP16, literal(-3)))
          CFI (cfiCond19) DPL0 load(1, XDATA, add(CFA_XSP16, literal(-2)))
          CFI (cfiCond19) DPH0 load(1, XDATA, add(CFA_XSP16, literal(-1)))
          CFI (cfiCond19) CFA_SP SP+-2
          CFI (cfiCond19) CFA_XSP16 add(XSP16, 11)
          CFI Block cfiPicker20 Using cfiCommon1
          CFI (cfiPicker20) NoFunction
          CFI (cfiPicker20) Picker
        MOVX      A,@DPTR
        MOV       R2,A
        INC       DPTR
        MOVX      A,@DPTR
        MOV       R3,A
        LCALL     `??osal_msg_deallocate::?relay`; Banked call to: osal_msg_deallocate
        RET
          CFI EndBlock cfiCond18
          CFI EndBlock cfiCond19
          CFI EndBlock cfiPicker20

        RSEG BANKED_CODE:HUGECODE:NOROOT(0)
?Subroutine5:
          CFI Block cfiCond21 Using cfiCommon0
          CFI Function MT_UartProcessZToolData
          CFI Conditional ??CrossCallReturnLabel_8
          CFI R6 load(1, XDATA, add(CFA_XSP16, literal(-10)))
          CFI VB load(1, XDATA, add(CFA_XSP16, literal(-9)))
          CFI V0 load(1, XDATA, add(CFA_XSP16, literal(-8)))
          CFI V1 load(1, XDATA, add(CFA_XSP16, literal(-7)))
          CFI R7 load(1, XDATA, add(CFA_XSP16, literal(-6)))
          CFI ?RET_LOW load(1, XDATA, add(CFA_XSP16, literal(-5)))
          CFI ?RET_HIGH load(1, XDATA, add(CFA_XSP16, literal(-4)))
          CFI ?BRET_EXT load(1, XDATA, add(CFA_XSP16, literal(-3)))
          CFI DPL0 load(1, XDATA, add(CFA_XSP16, literal(-2)))
          CFI DPH0 load(1, XDATA, add(CFA_XSP16, literal(-1)))
          CFI CFA_SP SP+-2
          CFI CFA_XSP16 add(XSP16, 11)
          CFI Block cfiCond22 Using cfiCommon0
          CFI (cfiCond22) Function MT_UartProcessZToolData
          CFI (cfiCond22) Conditional ??CrossCallReturnLabel_9
          CFI (cfiCond22) R6 load(1, XDATA, add(CFA_XSP16, literal(-10)))
          CFI (cfiCond22) VB load(1, XDATA, add(CFA_XSP16, literal(-9)))
          CFI (cfiCond22) V0 load(1, XDATA, add(CFA_XSP16, literal(-8)))
          CFI (cfiCond22) V1 load(1, XDATA, add(CFA_XSP16, literal(-7)))
          CFI (cfiCond22) R7 load(1, XDATA, add(CFA_XSP16, literal(-6)))
          CFI (cfiCond22) ?RET_LOW load(1, XDATA, add(CFA_XSP16, literal(-5)))
          CFI (cfiCond22) ?RET_HIGH load(1, XDATA, add(CFA_XSP16, literal(-4)))
          CFI (cfiCond22) ?BRET_EXT load(1, XDATA, add(CFA_XSP16, literal(-3)))
          CFI (cfiCond22) DPL0 load(1, XDATA, add(CFA_XSP16, literal(-2)))
          CFI (cfiCond22) DPH0 load(1, XDATA, add(CFA_XSP16, literal(-1)))
          CFI (cfiCond22) CFA_SP SP+-2
          CFI (cfiCond22) CFA_XSP16 add(XSP16, 11)
          CFI Block cfiPicker23 Using cfiCommon1
          CFI (cfiPicker23) NoFunction
          CFI (cfiPicker23) Picker
        LCALL     ?Subroutine10 & 0xFFFF
??CrossCallReturnLabel_19:
        INC       DPTR
        INC       DPTR
        MOVX      A,@DPTR
        RET
          CFI EndBlock cfiCond21
          CFI EndBlock cfiCond22
          CFI EndBlock cfiPicker23

        RSEG BANKED_CODE:HUGECODE:NOROOT(0)
?Subroutine4:
          CFI Block cfiCond24 Using cfiCommon0
          CFI Function MT_UartProcessZToolData1
          CFI Conditional ??CrossCallReturnLabel_6
          CFI R6 load(1, XDATA, add(CFA_XSP16, literal(-12)))
          CFI VB load(1, XDATA, add(CFA_XSP16, literal(-11)))
          CFI V0 load(1, XDATA, add(CFA_XSP16, literal(-10)))
          CFI V1 load(1, XDATA, add(CFA_XSP16, literal(-9)))
          CFI V2 load(1, XDATA, add(CFA_XSP16, literal(-8)))
          CFI V3 load(1, XDATA, add(CFA_XSP16, literal(-7)))
          CFI R7 load(1, XDATA, add(CFA_XSP16, literal(-6)))
          CFI ?RET_LOW load(1, XDATA, add(CFA_XSP16, literal(-5)))
          CFI ?RET_HIGH load(1, XDATA, add(CFA_XSP16, literal(-4)))
          CFI ?BRET_EXT load(1, XDATA, add(CFA_XSP16, literal(-3)))
          CFI DPL0 load(1, XDATA, add(CFA_XSP16, literal(-2)))
          CFI DPH0 load(1, XDATA, add(CFA_XSP16, literal(-1)))
          CFI CFA_SP SP+-2
          CFI CFA_XSP16 add(XSP16, 140)
          CFI Block cfiCond25 Using cfiCommon0
          CFI (cfiCond25) Function MT_UartProcessZToolData
          CFI (cfiCond25) Conditional ??CrossCallReturnLabel_7
          CFI (cfiCond25) R6 load(1, XDATA, add(CFA_XSP16, literal(-10)))
          CFI (cfiCond25) VB load(1, XDATA, add(CFA_XSP16, literal(-9)))
          CFI (cfiCond25) V0 load(1, XDATA, add(CFA_XSP16, literal(-8)))
          CFI (cfiCond25) V1 load(1, XDATA, add(CFA_XSP16, literal(-7)))
          CFI (cfiCond25) R7 load(1, XDATA, add(CFA_XSP16, literal(-6)))
          CFI (cfiCond25) ?RET_LOW load(1, XDATA, add(CFA_XSP16, literal(-5)))
          CFI (cfiCond25) ?RET_HIGH load(1, XDATA, add(CFA_XSP16, literal(-4)))
          CFI (cfiCond25) ?BRET_EXT load(1, XDATA, add(CFA_XSP16, literal(-3)))
          CFI (cfiCond25) DPL0 load(1, XDATA, add(CFA_XSP16, literal(-2)))
          CFI (cfiCond25) DPH0 load(1, XDATA, add(CFA_XSP16, literal(-1)))
          CFI (cfiCond25) CFA_SP SP+-2
          CFI (cfiCond25) CFA_XSP16 add(XSP16, 11)
          CFI Block cfiPicker26 Using cfiCommon1
          CFI (cfiPicker26) NoFunction
          CFI (cfiPicker26) Picker
        MOV       R2,A
        CLR       A
        ADDC      A,#0x0
        MOV       R3,A
        LCALL     `??osal_msg_allocate::?relay`; Banked call to: osal_msg_allocate
        MOV       DPTR,#pMsg
        MOV       A,R2
        MOVX      @DPTR,A
        INC       DPTR
        MOV       A,R3
        MOVX      @DPTR,A
        RET
          CFI EndBlock cfiCond24
          CFI EndBlock cfiCond25
          CFI EndBlock cfiPicker26

        RSEG BANKED_CODE:HUGECODE:NOROOT(0)
?Subroutine3:
          CFI Block cfiCond27 Using cfiCommon0
          CFI Function MT_UartProcessZToolData1
          CFI Conditional ??CrossCallReturnLabel_4
          CFI R6 load(1, XDATA, add(CFA_XSP16, literal(-12)))
          CFI VB load(1, XDATA, add(CFA_XSP16, literal(-11)))
          CFI V0 load(1, XDATA, add(CFA_XSP16, literal(-10)))
          CFI V1 load(1, XDATA, add(CFA_XSP16, literal(-9)))
          CFI V2 load(1, XDATA, add(CFA_XSP16, literal(-8)))
          CFI V3 load(1, XDATA, add(CFA_XSP16, literal(-7)))
          CFI R7 load(1, XDATA, add(CFA_XSP16, literal(-6)))
          CFI ?RET_LOW load(1, XDATA, add(CFA_XSP16, literal(-5)))
          CFI ?RET_HIGH load(1, XDATA, add(CFA_XSP16, literal(-4)))
          CFI ?BRET_EXT load(1, XDATA, add(CFA_XSP16, literal(-3)))
          CFI DPL0 load(1, XDATA, add(CFA_XSP16, literal(-2)))
          CFI DPH0 load(1, XDATA, add(CFA_XSP16, literal(-1)))
          CFI CFA_SP SP+-2
          CFI CFA_XSP16 add(XSP16, 140)
          CFI Block cfiCond28 Using cfiCommon0
          CFI (cfiCond28) Function MT_UartProcessZToolData
          CFI (cfiCond28) Conditional ??CrossCallReturnLabel_5
          CFI (cfiCond28) R6 load(1, XDATA, add(CFA_XSP16, literal(-10)))
          CFI (cfiCond28) VB load(1, XDATA, add(CFA_XSP16, literal(-9)))
          CFI (cfiCond28) V0 load(1, XDATA, add(CFA_XSP16, literal(-8)))
          CFI (cfiCond28) V1 load(1, XDATA, add(CFA_XSP16, literal(-7)))
          CFI (cfiCond28) R7 load(1, XDATA, add(CFA_XSP16, literal(-6)))
          CFI (cfiCond28) ?RET_LOW load(1, XDATA, add(CFA_XSP16, literal(-5)))
          CFI (cfiCond28) ?RET_HIGH load(1, XDATA, add(CFA_XSP16, literal(-4)))
          CFI (cfiCond28) ?BRET_EXT load(1, XDATA, add(CFA_XSP16, literal(-3)))
          CFI (cfiCond28) DPL0 load(1, XDATA, add(CFA_XSP16, literal(-2)))
          CFI (cfiCond28) DPH0 load(1, XDATA, add(CFA_XSP16, literal(-1)))
          CFI (cfiCond28) CFA_SP SP+-2
          CFI (cfiCond28) CFA_XSP16 add(XSP16, 11)
          CFI Block cfiPicker29 Using cfiCommon1
          CFI (cfiPicker29) NoFunction
          CFI (cfiPicker29) Picker
        MOVX      A,@DPTR
        MOV       R2,A
        INC       DPTR
        MOVX      A,@DPTR
        MOV       R3,A
        MOV       DPTR,#App_TaskID
        MOVX      A,@DPTR
        MOV       R1,A
        LCALL     `??osal_msg_send::?relay`; Banked call to: osal_msg_send
        RET
          CFI EndBlock cfiCond27
          CFI EndBlock cfiCond28
          CFI EndBlock cfiPicker29

        RSEG BANKED_CODE:HUGECODE:NOROOT(0)
?Subroutine2:
          CFI Block cfiCond30 Using cfiCommon0
          CFI Function MT_UartProcessZToolData
          CFI Conditional ??CrossCallReturnLabel_2
          CFI R6 load(1, XDATA, add(CFA_XSP16, literal(-10)))
          CFI VB load(1, XDATA, add(CFA_XSP16, literal(-9)))
          CFI V0 load(1, XDATA, add(CFA_XSP16, literal(-8)))
          CFI V1 load(1, XDATA, add(CFA_XSP16, literal(-7)))
          CFI R7 load(1, XDATA, add(CFA_XSP16, literal(-6)))
          CFI ?RET_LOW load(1, XDATA, add(CFA_XSP16, literal(-5)))
          CFI ?RET_HIGH load(1, XDATA, add(CFA_XSP16, literal(-4)))
          CFI ?BRET_EXT load(1, XDATA, add(CFA_XSP16, literal(-3)))
          CFI DPL0 load(1, XDATA, add(CFA_XSP16, literal(-2)))
          CFI DPH0 load(1, XDATA, add(CFA_XSP16, literal(-1)))
          CFI CFA_SP SP+-2
          CFI CFA_XSP16 add(XSP16, 11)
          CFI Block cfiCond31 Using cfiCommon0
          CFI (cfiCond31) Function MT_UartProcessZToolData
          CFI (cfiCond31) Conditional ??CrossCallReturnLabel_3
          CFI (cfiCond31) R6 load(1, XDATA, add(CFA_XSP16, literal(-10)))
          CFI (cfiCond31) VB load(1, XDATA, add(CFA_XSP16, literal(-9)))
          CFI (cfiCond31) V0 load(1, XDATA, add(CFA_XSP16, literal(-8)))
          CFI (cfiCond31) V1 load(1, XDATA, add(CFA_XSP16, literal(-7)))
          CFI (cfiCond31) R7 load(1, XDATA, add(CFA_XSP16, literal(-6)))
          CFI (cfiCond31) ?RET_LOW load(1, XDATA, add(CFA_XSP16, literal(-5)))
          CFI (cfiCond31) ?RET_HIGH load(1, XDATA, add(CFA_XSP16, literal(-4)))
          CFI (cfiCond31) ?BRET_EXT load(1, XDATA, add(CFA_XSP16, literal(-3)))
          CFI (cfiCond31) DPL0 load(1, XDATA, add(CFA_XSP16, literal(-2)))
          CFI (cfiCond31) DPH0 load(1, XDATA, add(CFA_XSP16, literal(-1)))
          CFI (cfiCond31) CFA_SP SP+-2
          CFI (cfiCond31) CFA_XSP16 add(XSP16, 11)
          CFI Block cfiPicker32 Using cfiCommon1
          CFI (cfiPicker32) NoFunction
          CFI (cfiPicker32) Picker
        MOV       DPTR,#pMsgContent
        MOVX      A,@DPTR
        LCALL     ?Subroutine9 & 0xFFFF
??CrossCallReturnLabel_18:
        MOV       R2,DPL
        MOV       R3,DPH
        MOV       A,R6
        MOV       R1,A
        LCALL     `??HalUARTRead::?relay`; Banked call to: HalUARTRead
        RET
          CFI EndBlock cfiCond30
          CFI EndBlock cfiCond31
          CFI EndBlock cfiPicker32

        RSEG BANKED_CODE:HUGECODE:NOROOT(0)
?Subroutine9:
          CFI Block cfiCond33 Using cfiCommon0
          CFI Function MT_UartProcessZToolData
          CFI Conditional ??CrossCallReturnLabel_17
          CFI R6 load(1, XDATA, add(CFA_XSP16, literal(-10)))
          CFI VB load(1, XDATA, add(CFA_XSP16, literal(-9)))
          CFI V0 load(1, XDATA, add(CFA_XSP16, literal(-8)))
          CFI V1 load(1, XDATA, add(CFA_XSP16, literal(-7)))
          CFI R7 load(1, XDATA, add(CFA_XSP16, literal(-6)))
          CFI ?RET_LOW load(1, XDATA, add(CFA_XSP16, literal(-5)))
          CFI ?RET_HIGH load(1, XDATA, add(CFA_XSP16, literal(-4)))
          CFI ?BRET_EXT load(1, XDATA, add(CFA_XSP16, literal(-3)))
          CFI DPL0 load(1, XDATA, add(CFA_XSP16, literal(-2)))
          CFI DPH0 load(1, XDATA, add(CFA_XSP16, literal(-1)))
          CFI CFA_XSP16 add(XSP16, 11)
          CFI Block cfiCond34 Using cfiCommon0
          CFI (cfiCond34) Function MT_UartProcessZToolData
          CFI (cfiCond34) Conditional ??CrossCallReturnLabel_18, ??CrossCallReturnLabel_2
          CFI (cfiCond34) R6 load(1, XDATA, add(CFA_XSP16, literal(-10)))
          CFI (cfiCond34) VB load(1, XDATA, add(CFA_XSP16, literal(-9)))
          CFI (cfiCond34) V0 load(1, XDATA, add(CFA_XSP16, literal(-8)))
          CFI (cfiCond34) V1 load(1, XDATA, add(CFA_XSP16, literal(-7)))
          CFI (cfiCond34) R7 load(1, XDATA, add(CFA_XSP16, literal(-6)))
          CFI (cfiCond34) ?RET_LOW load(1, XDATA, add(CFA_XSP16, literal(-5)))
          CFI (cfiCond34) ?RET_HIGH load(1, XDATA, add(CFA_XSP16, literal(-4)))
          CFI (cfiCond34) ?BRET_EXT load(1, XDATA, add(CFA_XSP16, literal(-3)))
          CFI (cfiCond34) DPL0 load(1, XDATA, add(CFA_XSP16, literal(-2)))
          CFI (cfiCond34) DPH0 load(1, XDATA, add(CFA_XSP16, literal(-1)))
          CFI (cfiCond34) CFA_SP SP+-4
          CFI (cfiCond34) CFA_XSP16 add(XSP16, 11)
          CFI Block cfiCond35 Using cfiCommon0
          CFI (cfiCond35) Function MT_UartProcessZToolData
          CFI (cfiCond35) Conditional ??CrossCallReturnLabel_18, ??CrossCallReturnLabel_3
          CFI (cfiCond35) R6 load(1, XDATA, add(CFA_XSP16, literal(-10)))
          CFI (cfiCond35) VB load(1, XDATA, add(CFA_XSP16, literal(-9)))
          CFI (cfiCond35) V0 load(1, XDATA, add(CFA_XSP16, literal(-8)))
          CFI (cfiCond35) V1 load(1, XDATA, add(CFA_XSP16, literal(-7)))
          CFI (cfiCond35) R7 load(1, XDATA, add(CFA_XSP16, literal(-6)))
          CFI (cfiCond35) ?RET_LOW load(1, XDATA, add(CFA_XSP16, literal(-5)))
          CFI (cfiCond35) ?RET_HIGH load(1, XDATA, add(CFA_XSP16, literal(-4)))
          CFI (cfiCond35) ?BRET_EXT load(1, XDATA, add(CFA_XSP16, literal(-3)))
          CFI (cfiCond35) DPL0 load(1, XDATA, add(CFA_XSP16, literal(-2)))
          CFI (cfiCond35) DPH0 load(1, XDATA, add(CFA_XSP16, literal(-1)))
          CFI (cfiCond35) CFA_SP SP+-4
          CFI (cfiCond35) CFA_XSP16 add(XSP16, 11)
          CFI Block cfiPicker36 Using cfiCommon1
          CFI (cfiPicker36) NoFunction
          CFI (cfiPicker36) Picker
        ADD       A,R0
        MOV       R2,A
        INC       DPTR
        MOVX      A,@DPTR
        ADDC      A,#0x0
        MOV       DPL,R2
        MOV       DPH,A
        INC       DPTR
        INC       DPTR
        INC       DPTR
        RET
          CFI EndBlock cfiCond33
          CFI EndBlock cfiCond34
          CFI EndBlock cfiCond35
          CFI EndBlock cfiPicker36

        RSEG BANKED_CODE:HUGECODE:NOROOT(0)
?Subroutine1:
          CFI Block cfiCond37 Using cfiCommon0
          CFI Function MT_UartProcessZToolData1
          CFI Conditional ??CrossCallReturnLabel_0
          CFI R6 load(1, XDATA, add(CFA_XSP16, literal(-12)))
          CFI VB load(1, XDATA, add(CFA_XSP16, literal(-11)))
          CFI V0 load(1, XDATA, add(CFA_XSP16, literal(-10)))
          CFI V1 load(1, XDATA, add(CFA_XSP16, literal(-9)))
          CFI V2 load(1, XDATA, add(CFA_XSP16, literal(-8)))
          CFI V3 load(1, XDATA, add(CFA_XSP16, literal(-7)))
          CFI R7 load(1, XDATA, add(CFA_XSP16, literal(-6)))
          CFI ?RET_LOW load(1, XDATA, add(CFA_XSP16, literal(-5)))
          CFI ?RET_HIGH load(1, XDATA, add(CFA_XSP16, literal(-4)))
          CFI ?BRET_EXT load(1, XDATA, add(CFA_XSP16, literal(-3)))
          CFI DPL0 load(1, XDATA, add(CFA_XSP16, literal(-2)))
          CFI DPH0 load(1, XDATA, add(CFA_XSP16, literal(-1)))
          CFI CFA_SP SP+-2
          CFI CFA_XSP16 add(XSP16, 140)
          CFI Block cfiCond38 Using cfiCommon0
          CFI (cfiCond38) Function MT_UartProcessZToolData
          CFI (cfiCond38) Conditional ??CrossCallReturnLabel_1
          CFI (cfiCond38) R6 load(1, XDATA, add(CFA_XSP16, literal(-10)))
          CFI (cfiCond38) VB load(1, XDATA, add(CFA_XSP16, literal(-9)))
          CFI (cfiCond38) V0 load(1, XDATA, add(CFA_XSP16, literal(-8)))
          CFI (cfiCond38) V1 load(1, XDATA, add(CFA_XSP16, literal(-7)))
          CFI (cfiCond38) R7 load(1, XDATA, add(CFA_XSP16, literal(-6)))
          CFI (cfiCond38) ?RET_LOW load(1, XDATA, add(CFA_XSP16, literal(-5)))
          CFI (cfiCond38) ?RET_HIGH load(1, XDATA, add(CFA_XSP16, literal(-4)))
          CFI (cfiCond38) ?BRET_EXT load(1, XDATA, add(CFA_XSP16, literal(-3)))
          CFI (cfiCond38) DPL0 load(1, XDATA, add(CFA_XSP16, literal(-2)))
          CFI (cfiCond38) DPH0 load(1, XDATA, add(CFA_XSP16, literal(-1)))
          CFI (cfiCond38) CFA_SP SP+-2
          CFI (cfiCond38) CFA_XSP16 add(XSP16, 11)
          CFI Block cfiPicker39 Using cfiCommon1
          CFI (cfiPicker39) NoFunction
          CFI (cfiPicker39) Picker
        MOV       DPH,A
        MOV       DPL,R2
        MOV       A,#0x1
        MOVX      @DPTR,A
        MOV       DPTR,#pMsg
        MOVX      A,@DPTR
        ADD       A,#0x4
        MOV       R0,A
        INC       DPTR
        MOVX      A,@DPTR
        ADDC      A,#0x0
        MOV       R1,A
        MOV       DPTR,#pMsg
        MOVX      A,@DPTR
        MOV       R2,A
        INC       DPTR
        MOVX      A,@DPTR
        MOV       DPH,A
        MOV       DPL,R2
        INC       DPTR
        INC       DPTR
        MOV       A,R0
        MOVX      @DPTR,A
        INC       DPTR
        MOV       A,R1
        MOVX      @DPTR,A
        RET
          CFI EndBlock cfiCond37
          CFI EndBlock cfiCond38
          CFI EndBlock cfiPicker39

        RSEG BANK_RELAYS:CODE:REORDER:NOROOT(0)
`??MT_UartInit::?relay`:
        CODE
        LCALL   ?BDISPATCH
        DATA24
        DC24    MT_UartInit

        RSEG BANK_RELAYS:CODE:REORDER:NOROOT(0)
`??MT_UartRegisterTaskID::?relay`:
        CODE
        LCALL   ?BDISPATCH
        DATA24
        DC24    MT_UartRegisterTaskID

        RSEG BANK_RELAYS:CODE:REORDER:NOROOT(0)
`??MT_UartCalcFCS::?relay`:
        CODE
        LCALL   ?BDISPATCH
        DATA24
        DC24    MT_UartCalcFCS

        RSEG BANK_RELAYS:CODE:REORDER:NOROOT(0)
`??MT_UartProcessZToolData1::?relay`:
        CODE
        LCALL   ?BDISPATCH
        DATA24
        DC24    MT_UartProcessZToolData1

        RSEG BANK_RELAYS:CODE:REORDER:NOROOT(0)
`??MT_UartProcessZToolData::?relay`:
        CODE
        LCALL   ?BDISPATCH
        DATA24
        DC24    MT_UartProcessZToolData

        END
//  300 #if 0
//  301 void MT_UartProcessAppData ( uint8 port, uint8 event )
//  302 {
//  303    uint8  *bytesInRxBuffer;
//  304   static uint8 *msg;
//  305 
//  306   (void)event;  // Intentionally unreferenced parameter
//  307   msg = (uint8 *)osal_msg_allocate(5);
//  308   if(msg){
//  309     bytesInRxBuffer = msg;
//  310     *bytesInRxBuffer ++ = CMD_SERIAL_MSG;
//  311   }
//  312   while (Hal_UART_RxBufLen(port))
//  313   {
//  314     HalUARTRead (port, bytesInRxBuffer , 5);
//  315     osal_msg_send( App_TaskID, (byte *)msg );
//  316   }
//  317 
//  318 }
//  319 #endif
//  320 
//  321 #endif
//  322 #if defined (ZAPP_P1) || defined (ZAPP_P2)
//  323 /***************************************************************************************************
//  324  * @fn      MT_UartProcessZAppData
//  325  *
//  326  * @brief   | SOP | CMD  |   Data Length   | FSC  |
//  327  *          |  1  |  2   |       1         |  1   |
//  328  *
//  329  *          Parses the data and determine either is SPI or just simply serial data
//  330  *          then send the data to correct place (MT or APP)
//  331  *
//  332  * @param   port    - UART port
//  333  *          event   - Event that causes the callback
//  334  *
//  335  *
//  336  * @return  None
//  337  ***************************************************************************************************/
//  338 void MT_UartProcessZAppData ( uint8 port, uint8 event )
//  339 {
//  340 
//  341   osal_event_hdr_t  *msg_ptr;
//  342   uint16 length = 0;
//  343   uint16 rxBufLen  = Hal_UART_RxBufLen(MT_UART_DEFAULT_PORT);
//  344 
//  345   /*
//  346      If maxZAppBufferLength is 0 or larger than current length
//  347      the entire length of the current buffer is returned.
//  348   */
//  349   if ((MT_UartMaxZAppBufLen != 0) && (MT_UartMaxZAppBufLen <= rxBufLen))
//  350   {
//  351     length = MT_UartMaxZAppBufLen;
//  352   }
//  353   else
//  354   {
//  355     length = rxBufLen;
//  356   }
//  357 
//  358   /* Verify events */
//  359   if (event == HAL_UART_TX_FULL)
//  360   {
//  361     // Do something when TX if full
//  362     return;
//  363   }
//  364 
//  365   if (event & ( HAL_UART_RX_FULL | HAL_UART_RX_ABOUT_FULL | HAL_UART_RX_TIMEOUT))
//  366   {
//  367     if ( App_TaskID )
//  368     {
//  369       /*
//  370          If Application is ready to receive and there is something
//  371          in the Rx buffer then send it up
//  372       */
//  373       if ((MT_UartZAppRxStatus == MT_UART_ZAPP_RX_READY ) && (length != 0))
//  374       {
//  375         /* Disable App flow control until it processes the current data */
//  376          MT_UartAppFlowControl (MT_UART_ZAPP_RX_NOT_READY);
//  377 
//  378         /* 2 more bytes are added, 1 for CMD type, other for length */
//  379         msg_ptr = (osal_event_hdr_t *)osal_msg_allocate( length + sizeof(osal_event_hdr_t) );
//  380         if ( msg_ptr )
//  381         {
//  382           msg_ptr->event = SPI_INCOMING_ZAPP_DATA;
//  383           msg_ptr->status = length;
//  384 
//  385           /* Read the data of Rx buffer */
//  386           HalUARTRead( MT_UART_DEFAULT_PORT, (uint8 *)(msg_ptr + 1), length );
//  387 
//  388           /* Send the raw data to application...or where ever */
//  389           osal_msg_send( App_TaskID, (uint8 *)msg_ptr );
//  390         }
//  391       }
//  392     }
//  393   }
//  394 }
//  395 
//  396 /***************************************************************************************************
//  397  * @fn      SPIMgr_ZAppBufferLengthRegister
//  398  *
//  399  * @brief
//  400  *
//  401  * @param   maxLen - Max Length that the application wants at a time
//  402  *
//  403  * @return  None
//  404  *
//  405  ***************************************************************************************************/
//  406 void MT_UartZAppBufferLengthRegister ( uint16 maxLen )
//  407 {
//  408   /* If the maxLen is larger than the RX buff, something is not right */
//  409   if (maxLen <= MT_UART_DEFAULT_MAX_RX_BUFF)
//  410     MT_UartMaxZAppBufLen = maxLen;
//  411   else
//  412     MT_UartMaxZAppBufLen = 1; /* default is 1 byte */
//  413 }
//  414 
//  415 /***************************************************************************************************
//  416  * @fn      SPIMgr_AppFlowControl
//  417  *
//  418  * @brief
//  419  *
//  420  * @param   status - ready to send or not
//  421  *
//  422  * @return  None
//  423  *
//  424  ***************************************************************************************************/
//  425 void MT_UartAppFlowControl ( bool status )
//  426 {
//  427 
//  428   /* Make sure only update if needed */
//  429   if (status != MT_UartZAppRxStatus )
//  430   {
//  431     MT_UartZAppRxStatus = status;
//  432   }
//  433 
//  434   /* App is ready to read again, ProcessZAppData have to be triggered too */
//  435   if (status == MT_UART_ZAPP_RX_READY)
//  436   {
//  437     MT_UartProcessZAppData (MT_UART_DEFAULT_PORT, HAL_UART_RX_TIMEOUT );
//  438   }
//  439 
//  440 }
//  441 
//  442 #endif //ZAPP
//  443 
//  444 /***************************************************************************************************
//  445 ***************************************************************************************************/
// 
// 870 bytes in segment BANKED_CODE
//  30 bytes in segment BANK_RELAYS
//   7 bytes in segment XDATA_Z
// 
//  30 bytes of CODE     memory
// 870 bytes of HUGECODE memory
//   7 bytes of XDATA    memory
//
//Errors: none
//Warnings: none
