###############################################################################
#
# IAR C/C++ Compiler V10.20.1.5333 for 8051               04/Sep/2019  16:42:53
# Copyright 2004-2018 IAR Systems AB.
# PC-locked license - IAR Embedded Workbench for 8051
#
#    Core               =  plain
#    Code model         =  banked
#    Data model         =  large
#    Calling convention =  xdata reentrant
#    Constant location  =  data_rom
#    Dptr setup         =  1,16
#                          
#    Source file        =  
#        \\Mac\Home\Documents\GitHub\Kraken\Zigbee_NetWork\Projects\SappWsn\Source\SAPP_FrameWork.c
#    Command line       =  
#        -f C:\Users\talnex\AppData\Local\Temp\EW854B.tmp
#        (\\Mac\Home\Documents\GitHub\Kraken\Zigbee_NetWork\Projects\SappWsn\Source\SAPP_FrameWork.c
#        -D ZTOOL_P1 -D MT_TASK -D MT_SYS_FUNC -D MT_ZDO_FUNC -D
#        LCD_SUPPORTED=DEBUG -D SAPP_ZSTACK -lC
#        \\Mac\Home\Documents\GitHub\Kraken\Zigbee_NetWork\Projects\SappWsn\RouterEB\List
#        -lA
#        \\Mac\Home\Documents\GitHub\Kraken\Zigbee_NetWork\Projects\SappWsn\RouterEB\List
#        --diag_suppress Pe001,Pa010 -o
#        \\Mac\Home\Documents\GitHub\Kraken\Zigbee_NetWork\Projects\SappWsn\RouterEB\Obj
#        -e --debug --core=plain --dptr=16,1 --data_model=large
#        --code_model=banked --calling_convention=xdata_reentrant
#        --place_constants=data_rom --nr_virtual_regs 8 -f
#        \\Mac\Home\Documents\GitHub\Kraken\Zigbee_NetWork\Projects\SappWsn\..\zstack\Tools\CC2530DB\f8wRouter.cfg
#        (-DCPU32MHZ -DROOT=__near_func -DMAC_CFG_APP_PENDING_QUEUE=TRUE
#        -DMAC_CFG_TX_DATA_MAX=5 -DMAC_CFG_TX_MAX=8 -DMAC_CFG_RX_MAX=5
#        -DRTR_NWK) -f
#        \\Mac\Home\Documents\GitHub\Kraken\Zigbee_NetWork\Projects\SappWsn\..\zstack\Tools\CC2530DB\f8wConfig.cfg
#        (-DZIGBEEPRO -DSECURE=0 -DZG_SECURE_DYNAMIC=0 -DREFLECTOR
#        -DDEFAULT_CHANLIST=0x00000800 -DZDAPP_CONFIG_PAN_ID=0x4545
#        -DNWK_START_DELAY=100 -DEXTENDED_JOINING_RANDOM_MASK=0x007F
#        -DBEACON_REQUEST_DELAY=100 -DBEACON_REQ_DELAY_MASK=0x00FF
#        -DLINK_STATUS_JITTER_MASK=0x007F -DROUTE_EXPIRY_TIME=30
#        -DAPSC_ACK_WAIT_DURATION_POLLED=3000 -DNWK_INDIRECT_MSG_TIMEOUT=7
#        -DMAX_RREQ_ENTRIES=8 -DAPSC_MAX_FRAME_RETRIES=3
#        -DNWK_MAX_DATA_RETRIES=2 -DMAX_POLL_FAILURE_RETRIES=2 -DMAX_BCAST=9
#        -DAPS_MAX_GROUPS=16 -DMAX_RTG_ENTRIES=40 -DNWK_MAX_BINDING_ENTRIES=4
#        -DMAX_BINDING_CLUSTER_IDS=4 "-DDEFAULT_KEY={0x01, 0x03, 0x05, 0x07,
#        0x09, 0x0B, 0x0D, 0x0F, 0x00, 0x02, 0x04, 0x06, 0x08, 0x0A, 0x0C,
#        0x0D}" -DMAC_MAX_FRAME_SIZE=116 -DZDNWKMGR_MIN_TRANSMISSIONS=20
#        "-DCONST=const __code" -DGENERIC=__generic -DRFD_RCVC_ALWAYS_ON=FALSE
#        -DPOLL_RATE=1000 -DQUEUED_POLL_RATE=100 -DRESPONSE_POLL_RATE=100
#        -DREJOIN_POLL_RATE=440) -I
#        \\Mac\Home\Documents\GitHub\Kraken\Zigbee_NetWork\Projects\SappWsn\ -I
#        \\Mac\Home\Documents\GitHub\Kraken\Zigbee_NetWork\Projects\SappWsn\Source\
#        -I
#        \\Mac\Home\Documents\GitHub\Kraken\Zigbee_NetWork\Projects\SappWsn\..\zstack\ZMain\TI2530DB\
#        -I
#        \\Mac\Home\Documents\GitHub\Kraken\Zigbee_NetWork\Projects\SappWsn\..\..\Components\hal\include\
#        -I
#        \\Mac\Home\Documents\GitHub\Kraken\Zigbee_NetWork\Projects\SappWsn\..\..\Components\hal\target\CC2530EB\
#        -I
#        \\Mac\Home\Documents\GitHub\Kraken\Zigbee_NetWork\Projects\SappWsn\..\..\Components\mac\include\
#        -I
#        \\Mac\Home\Documents\GitHub\Kraken\Zigbee_NetWork\Projects\SappWsn\..\..\Components\mac\high_level\
#        -I
#        \\Mac\Home\Documents\GitHub\Kraken\Zigbee_NetWork\Projects\SappWsn\..\..\Components\mac\low_level\srf04\
#        -I
#        \\Mac\Home\Documents\GitHub\Kraken\Zigbee_NetWork\Projects\SappWsn\..\..\Components\mac\low_level\srf04\single_chip\
#        -I
#        \\Mac\Home\Documents\GitHub\Kraken\Zigbee_NetWork\Projects\SappWsn\..\..\Components\mt\
#        -I
#        \\Mac\Home\Documents\GitHub\Kraken\Zigbee_NetWork\Projects\SappWsn\..\..\Components\osal\include\
#        -I
#        \\Mac\Home\Documents\GitHub\Kraken\Zigbee_NetWork\Projects\SappWsn\..\..\Components\services\saddr\
#        -I
#        \\Mac\Home\Documents\GitHub\Kraken\Zigbee_NetWork\Projects\SappWsn\..\..\Components\services\sdata\
#        -I
#        \\Mac\Home\Documents\GitHub\Kraken\Zigbee_NetWork\Projects\SappWsn\..\..\Components\stack\af\
#        -I
#        \\Mac\Home\Documents\GitHub\Kraken\Zigbee_NetWork\Projects\SappWsn\..\..\Components\stack\nwk\
#        -I
#        \\Mac\Home\Documents\GitHub\Kraken\Zigbee_NetWork\Projects\SappWsn\..\..\Components\stack\sapi\
#        -I
#        \\Mac\Home\Documents\GitHub\Kraken\Zigbee_NetWork\Projects\SappWsn\..\..\Components\stack\sec\
#        -I
#        \\Mac\Home\Documents\GitHub\Kraken\Zigbee_NetWork\Projects\SappWsn\..\..\Components\stack\sys\
#        -I
#        \\Mac\Home\Documents\GitHub\Kraken\Zigbee_NetWork\Projects\SappWsn\..\..\Components\stack\zdo\
#        -I
#        \\Mac\Home\Documents\GitHub\Kraken\Zigbee_NetWork\Projects\SappWsn\..\..\Components\zmac\
#        -I
#        \\Mac\Home\Documents\GitHub\Kraken\Zigbee_NetWork\Projects\SappWsn\..\..\Components\zmac\f8w\
#        -Ohz --no_code_motion)
#    Locale             =  Chinese (Simplified)_CHN.936
#    List file          =  
#        \\Mac\Home\Documents\GitHub\Kraken\Zigbee_NetWork\Projects\SappWsn\RouterEB\List\SAPP_FrameWork.lst
#    Object file        =  
#        \\Mac\Home\Documents\GitHub\Kraken\Zigbee_NetWork\Projects\SappWsn\RouterEB\Obj\SAPP_FrameWork.r51
#
###############################################################################

\\Mac\Home\Documents\GitHub\Kraken\Zigbee_NetWork\Projects\SappWsn\Source\SAPP_FrameWork.c
      1          #if defined(SAPP_ZSTACK)
      2          #include "SAPP_FrameWork.h"

   \                                 In  segment SFR_AN, at 0x86
   \   unsigned char volatile __sfr U0CSR
   \                     U0CSR:
   \   000000                DS 1

   \                                 In  segment SFR_AN, at 0x9d
   \   unsigned char volatile __sfr SLEEPSTA
   \                     SLEEPSTA:
   \   000000                DS 1

   \                                 In  segment SFR_AN, at 0x9e
   \   unsigned char volatile __sfr CLKCONSTA
   \                     CLKCONSTA:
   \   000000                DS 1

   \                                 In  segment SFR_AN, at 0xa8
   \   union <unnamed> volatile __sfr _A_IEN0
   \                     _A_IEN0:
   \   000000                DS 1

   \                                 In  segment SFR_AN, at 0xbe
   \   unsigned char volatile __sfr SLEEPCMD
   \                     SLEEPCMD:
   \   000000                DS 1

   \                                 In  segment SFR_AN, at 0xc1
   \   unsigned char volatile __sfr U0DBUF
   \                     U0DBUF:
   \   000000                DS 1

   \                                 In  segment SFR_AN, at 0xc2
   \   unsigned char volatile __sfr U0BAUD
   \                     U0BAUD:
   \   000000                DS 1

   \                                 In  segment SFR_AN, at 0xc5
   \   unsigned char volatile __sfr U0GCR
   \                     U0GCR:
   \   000000                DS 1

   \                                 In  segment SFR_AN, at 0xc6
   \   unsigned char volatile __sfr CLKCONCMD
   \                     CLKCONCMD:
   \   000000                DS 1

   \                                 In  segment SFR_AN, at 0xe8
   \   union <unnamed> volatile __sfr _A_IRCON2
   \                     _A_IRCON2:
   \   000000                DS 1

   \                                 In  segment SFR_AN, at 0xf1
   \   unsigned char volatile __sfr PERCFG
   \                     PERCFG:
   \   000000                DS 1

   \                                 In  segment SFR_AN, at 0xf3
   \   unsigned char volatile __sfr P0SEL
   \                     P0SEL:
   \   000000                DS 1
      3          #include "DealStringInfo.h"

   \                                 In  segment BANKED_CODE, align 1, keep-with-next
   \   __banked_func __xdata_reentrant void init(List **)
   \                     init:
   \   000000                REQUIRE ?V0
   \   000000                REQUIRE ?V1
   \   000000   74F6         MOV       A,#-0xa
   \   000002   12....       LCALL     ?BANKED_ENTER_XDATA
   \   000005                ; Saved register size: 10
   \   000005                ; Auto size: 0
   \   000005   EA           MOV       A,R2
   \   000006   FE           MOV       R6,A
   \   000007   EB           MOV       A,R3
   \   000008   FF           MOV       R7,A
   \   000009   EA           MOV       A,R2
   \   00000A   4F           ORL       A,R7
   \   00000B   7019         JNZ       ??init_0
   \   00000D                ; Setup parameters for call to function _Assert
   \   00000D   75..17       MOV       ?V0,#0x17
   \   000010   75..00       MOV       ?V1,#0x0
   \   000013   78..         MOV       R0,#?V0
   \   000015   12....       LCALL     ?PUSH_XSTACK_I_TWO
   \   000018   7C..         MOV       R4,#`?<Constant "\\\\\\\\Mac\\\\Home\\\\Documents\\\\...">` & 0xff
   \   00001A   7D..         MOV       R5,#(`?<Constant "\\\\\\\\Mac\\\\Home\\\\Documents\\\\...">` >> 8) & 0xff
   \   00001C   7A..         MOV       R2,#`?<Constant "head">` & 0xff
   \   00001E   7B..         MOV       R3,#(`?<Constant "head">` >> 8) & 0xff
   \   000020   12....       LCALL     ??Subroutine79_0 & 0xFFFF
   \                     ??CrossCallReturnLabel_130:
   \   000023   12....       LCALL     ?DEALLOC_XSTACK8
   \                     ??init_0:
   \   000026   8E82         MOV       DPL,R6
   \   000028   8F83         MOV       DPH,R7
   \   00002A   E4           CLR       A
   \   00002B   F0           MOVX      @DPTR,A
   \   00002C   A3           INC       DPTR
   \   00002D   F0           MOVX      @DPTR,A
   \   00002E   02....       LJMP      ?Subroutine0 & 0xFFFF

   \                                 In  segment BANKED_CODE, align 1, keep-with-next
   \                     ??Subroutine79_0:

  	for (pCur; pCur != NULL; pCur = pCur->next)
  	     ^
"\\Mac\Home\Documents\GitHub\Kraken\Zigbee_NetWork\Projects\SappWsn\Source\List.h",81  Warning[Pe174]: 
          expression has no effect

                HalUARTWrite(HAL_UART_PORT_0, pCur->data, sizeof(pCur->data) - 1);
                                              ^
"\\Mac\Home\Documents\GitHub\Kraken\Zigbee_NetWork\Projects\SappWsn\Source\List.h",83  Warning[Pe167]: 
          argument of type "char *" is incompatible with parameter of type
          "uint8 *"
   \   000000   12....       LCALL     `??_Assert::?relay`; Banked call to: _Assert
   \   000003   7402         MOV       A,#0x2
   \   000005   22           RET

   \                                 In  segment BANKED_CODE, align 1, keep-with-next
   \                     ?Subroutine0:

  	uint8 i = 0;
  	      ^
"\\Mac\Home\Documents\GitHub\Kraken\Zigbee_NetWork\Projects\SappWsn\Source\List.h",151  Warning[Pe550]: 
          variable "i" was set but never used

  	uint8 i, j = 0;
  	         ^
"\\Mac\Home\Documents\GitHub\Kraken\Zigbee_NetWork\Projects\SappWsn\Source\List.h",186  Warning[Pe177]: 
          variable "j" was declared but never referenced

  		return str;
  		       ^
"\\Mac\Home\Documents\GitHub\Kraken\Zigbee_NetWork\Projects\SappWsn\Source\List.h",246  Warning[Pe1056]: 
          returning pointer to local variable

  	uint8 size = 0;
  	      ^
"\\Mac\Home\Documents\GitHub\Kraken\Zigbee_NetWork\Projects\SappWsn\Source\List.h",230  Warning[Pe177]: 
          variable "size" was declared but never referenced

  	 for (i = 5; i >= 0; i--) {
  	               ^
"\\Mac\Home\Documents\GitHub\Kraken\Zigbee_NetWork\Projects\SappWsn\Source\DealStringInfo.h",27  Warning[Pe186]: 
          pointless comparison of unsigned integer with zero

  	 if (-1 == i) {
  	        ^
"\\Mac\Home\Documents\GitHub\Kraken\Zigbee_NetWork\Projects\SappWsn\Source\DealStringInfo.h",36  Warning[Pe514]: 
          pointless comparison of unsigned integer with a negative constant

  		 for (j = i; j >= 0; j--) {
  		               ^
"\\Mac\Home\Documents\GitHub\Kraken\Zigbee_NetWork\Projects\SappWsn\Source\DealStringInfo.h",41  Warning[Pe186]: 
          pointless comparison of unsigned integer with zero

  	return substr;
  	       ^
"\\Mac\Home\Documents\GitHub\Kraken\Zigbee_NetWork\Projects\SappWsn\Source\DealStringInfo.h",178  Warning[Pe1056]: 
          returning pointer to local variable

  }
  ^
"\\Mac\Home\Documents\GitHub\Kraken\Zigbee_NetWork\Projects\SappWsn\Source\DealStringInfo.h",196  Warning[Pe940]: 
          missing return statement at end of non-void function "hasChar"

  	uint8 position;
  	      ^
"\\Mac\Home\Documents\GitHub\Kraken\Zigbee_NetWork\Projects\SappWsn\Source\DealStringInfo.h",257  Warning[Pe177]: 
          variable "position" was declared but never referenced

  	char* mode;
  	      ^
"\\Mac\Home\Documents\GitHub\Kraken\Zigbee_NetWork\Projects\SappWsn\Source\DealStringInfo.h",258  Warning[Pe177]: 
          variable "mode" was declared but never referenced

  	char* port;
  	      ^
"\\Mac\Home\Documents\GitHub\Kraken\Zigbee_NetWork\Projects\SappWsn\Source\DealStringInfo.h",259  Warning[Pe177]: 
          variable "port" was declared but never referenced

  	char* ip;
  	      ^
"\\Mac\Home\Documents\GitHub\Kraken\Zigbee_NetWork\Projects\SappWsn\Source\DealStringInfo.h",260  Warning[Pe177]: 
          variable "ip" was declared but never referenced

  	char* id;
  	      ^
"\\Mac\Home\Documents\GitHub\Kraken\Zigbee_NetWork\Projects\SappWsn\Source\DealStringInfo.h",261  Warning[Pe177]: 
          variable "id" was declared but never referenced

  	char* type;
  	      ^
"\\Mac\Home\Documents\GitHub\Kraken\Zigbee_NetWork\Projects\SappWsn\Source\DealStringInfo.h",262  Warning[Pe177]: 
          variable "type" was declared but never referenced

  	char* data;
  	      ^
"\\Mac\Home\Documents\GitHub\Kraken\Zigbee_NetWork\Projects\SappWsn\Source\DealStringInfo.h",263  Warning[Pe177]: 
          variable "data" was declared but never referenced

  	uint8 sum;
  	      ^
"\\Mac\Home\Documents\GitHub\Kraken\Zigbee_NetWork\Projects\SappWsn\Source\DealStringInfo.h",266  Warning[Pe550]: 
          variable "sum" was set but never used

  	char comma[] = ",";
  	     ^
"\\Mac\Home\Documents\GitHub\Kraken\Zigbee_NetWork\Projects\SappWsn\Source\DealStringInfo.h",267  Warning[Pe177]: 
          variable "comma" was declared but never referenced

  	return substr;
  	       ^
"\\Mac\Home\Documents\GitHub\Kraken\Zigbee_NetWork\Projects\SappWsn\Source\DealStringInfo.h",635  Warning[Pe1056]: 
          returning pointer to local variable

  	return substr;
  	       ^
"\\Mac\Home\Documents\GitHub\Kraken\Zigbee_NetWork\Projects\SappWsn\Source\DealStringInfo.h",703  Warning[Pe1056]: 
          returning pointer to local variable
   \   000000   7F02         MOV       R7,#0x2
   \   000002   02....       LJMP      ?BANKED_LEAVE_XDATA

   \                                 In  segment BANKED_CODE, align 1, keep-with-next
   \   __banked_func __xdata_reentrant List *creatNode(char *)
   \                     creatNode:
   \   000000                REQUIRE ?V0
   \   000000                REQUIRE ?V1
   \   000000                REQUIRE ?V2
   \   000000                REQUIRE ?V3
   \   000000   74F4         MOV       A,#-0xc
   \   000002   12....       LCALL     ?BANKED_ENTER_XDATA
   \   000005                ; Saved register size: 12
   \   000005                ; Auto size: 0
   \   000005   8A..         MOV       ?V0,R2
   \   000007   8B..         MOV       ?V1,R3
   \   000009                ; Setup parameters for call to function osal_mem_alloc
   \   000009   7A66         MOV       R2,#0x66
   \   00000B   7B00         MOV       R3,#0x0
   \   00000D   12....       LCALL     `??osal_mem_alloc::?relay`; Banked call to: osal_mem_alloc
   \   000010   8A..         MOV       ?V2,R2
   \   000012   8B..         MOV       ?V3,R3
   \   000014   AE..         MOV       R6,?V2
   \   000016   AF..         MOV       R7,?V3
   \   000018   EA           MOV       A,R2
   \   000019   4F           ORL       A,R7
   \   00001A   7019         JNZ       ??creatNode_0
   \   00001C                ; Setup parameters for call to function _Assert
   \   00001C   75..1F       MOV       ?V2,#0x1f
   \   00001F   75..00       MOV       ?V3,#0x0
   \   000022   78..         MOV       R0,#?V2
   \   000024   12....       LCALL     ?PUSH_XSTACK_I_TWO
   \   000027   7C..         MOV       R4,#`?<Constant "\\\\\\\\Mac\\\\Home\\\\Documents\\\\...">` & 0xff
   \   000029   7D..         MOV       R5,#(`?<Constant "\\\\\\\\Mac\\\\Home\\\\Documents\\\\...">` >> 8) & 0xff
   \   00002B   7A..         MOV       R2,#`?<Constant "pNewNode">` & 0xff
   \   00002D   7B..         MOV       R3,#(`?<Constant "pNewNode">` >> 8) & 0xff
   \   00002F   12....       LCALL     ??Subroutine79_0 & 0xFFFF
   \                     ??CrossCallReturnLabel_131:
   \   000032   12....       LCALL     ?DEALLOC_XSTACK8
   \                     ??creatNode_0:
   \   000035                ; Setup parameters for call to function strcpy
   \   000035   AC..         MOV       R4,?V0
   \   000037   AD..         MOV       R5,?V1
   \   000039   EE           MOV       A,R6
   \   00003A   FA           MOV       R2,A
   \   00003B   EF           MOV       A,R7
   \   00003C   FB           MOV       R3,A
   \   00003D   12....       LCALL     `??strcpy::?relay`; Banked call to: strcpy
   \   000040   12....       LCALL     ?Subroutine11 & 0xFFFF
   \                     ??CrossCallReturnLabel_4:
   \   000043   E4           CLR       A
   \   000044   F0           MOVX      @DPTR,A
   \   000045   A3           INC       DPTR
   \   000046   F0           MOVX      @DPTR,A
   \   000047   EE           MOV       A,R6
   \   000048   FA           MOV       R2,A
   \   000049   EF           MOV       A,R7
   \   00004A   FB           MOV       R3,A
   \   00004B   02....       LJMP      ??Subroutine80_0 & 0xFFFF

   \                                 In  segment BANKED_CODE, align 1, keep-with-next
   \                     ?Subroutine11:
   \   000000   EE           MOV       A,R6
   \   000001   12....       LCALL     ?Subroutine63 & 0xFFFF
   \                     ??CrossCallReturnLabel_100:
   \   000004   22           RET

   \                                 In  segment BANKED_CODE, align 1, keep-with-next
   \                     ?Subroutine63:
   \   000000   12....       LCALL     ?Subroutine76 & 0xFFFF
   \                     ??CrossCallReturnLabel_122:
   \   000003   3F           ADDC      A,R7
   \   000004   F583         MOV       DPH,A
   \   000006   22           RET

   \                                 In  segment BANKED_CODE, align 1, keep-with-next
   \                     ?Subroutine76:
   \   000000   2464         ADD       A,#0x64
   \   000002   F582         MOV       DPL,A
   \   000004   E4           CLR       A
   \   000005   22           RET

   \                                 In  segment BANKED_CODE, align 1, keep-with-next
   \                     ??Subroutine80_0:
   \   000000   7F04         MOV       R7,#0x4
   \   000002   02....       LJMP      ?BANKED_LEAVE_XDATA

   \                                 In  segment BANKED_CODE, align 1, keep-with-next
   \   __banked_func __xdata_reentrant void append(List **, char *)
   \                     append:
   \   000000                REQUIRE ?V0
   \   000000                REQUIRE ?V1
   \   000000                REQUIRE ?V2
   \   000000                REQUIRE ?V3
   \   000000   74F4         MOV       A,#-0xc
   \   000002   12....       LCALL     ?BANKED_ENTER_XDATA
   \   000005                ; Saved register size: 12
   \   000005                ; Auto size: 0
   \   000005   EA           MOV       A,R2
   \   000006   FE           MOV       R6,A
   \   000007   EB           MOV       A,R3
   \   000008   FF           MOV       R7,A
   \   000009   EC           MOV       A,R4
   \   00000A   FA           MOV       R2,A
   \   00000B   ED           MOV       A,R5
   \   00000C   FB           MOV       R3,A
   \   00000D                ; Setup parameters for call to function creatNode
   \   00000D   12....       LCALL     `??creatNode::?relay`; Banked call to: creatNode
   \   000010   8A..         MOV       ?V0,R2
   \   000012   8B..         MOV       ?V1,R3
   \   000014   EE           MOV       A,R6
   \   000015   4F           ORL       A,R7
   \   000016   7019         JNZ       ??append_0
   \   000018                ; Setup parameters for call to function _Assert
   \   000018   75..2B       MOV       ?V2,#0x2b
   \   00001B   75..00       MOV       ?V3,#0x0
   \   00001E   78..         MOV       R0,#?V2
   \   000020   12....       LCALL     ?PUSH_XSTACK_I_TWO
   \   000023   7C..         MOV       R4,#`?<Constant "\\\\\\\\Mac\\\\Home\\\\Documents\\\\...">` & 0xff
   \   000025   7D..         MOV       R5,#(`?<Constant "\\\\\\\\Mac\\\\Home\\\\Documents\\\\...">` >> 8) & 0xff
   \   000027   7A..         MOV       R2,#`?<Constant "head">` & 0xff
   \   000029   7B..         MOV       R3,#(`?<Constant "head">` >> 8) & 0xff
   \   00002B   12....       LCALL     ??Subroutine79_0 & 0xFFFF
   \                     ??CrossCallReturnLabel_132:
   \   00002E   12....       LCALL     ?DEALLOC_XSTACK8
   \                     ??append_0:
   \   000031   8E82         MOV       DPL,R6
   \   000033   8F83         MOV       DPH,R7
   \   000035   12....       LCALL     ??Subroutine97_0 & 0xFFFF
   \                     ??CrossCallReturnLabel_225:
   \   000038   7009         JNZ       ??CrossCallReturnLabel_7
   \   00003A   8E82         MOV       DPL,R6
   \   00003C   8F83         MOV       DPH,R7
   \   00003E   8010         SJMP      ??CrossCallReturnLabel_17
   \                     ??append_1:
   \   000040   12....       LCALL     ?Subroutine12 & 0xFFFF
   \                     ??CrossCallReturnLabel_7:
   \   000043   12....       LCALL     ?Subroutine16 & 0xFFFF
   \                     ??CrossCallReturnLabel_16:
   \   000046   12....       LCALL     ??Subroutine91_0 & 0xFFFF
   \                     ??CrossCallReturnLabel_197:
   \   000049   EA           MOV       A,R2
   \   00004A   4B           ORL       A,R3
   \   00004B   70F3         JNZ       ??append_1
   \   00004D   12....       LCALL     ?Subroutine16 & 0xFFFF
   \                     ??CrossCallReturnLabel_17:
   \   000050   E5..         MOV       A,?V0
   \   000052   F0           MOVX      @DPTR,A
   \   000053   A3           INC       DPTR
   \   000054   E5..         MOV       A,?V1
   \   000056   02....       LJMP      ?Subroutine1 & 0xFFFF

   \                                 In  segment BANKED_CODE, align 1, keep-with-next
   \                     ?Subroutine16:
   \   000000   12....       LCALL     ?Subroutine62 & 0xFFFF
   \                     ??CrossCallReturnLabel_98:
   \   000003   22           RET

   \                                 In  segment BANKED_CODE, align 1, keep-with-next
   \                     ?Subroutine62:
   \   000000   E8           MOV       A,R0
   \   000001   12....       LCALL     ?Subroutine76 & 0xFFFF
   \                     ??CrossCallReturnLabel_121:
   \   000004   39           ADDC      A,R1
   \   000005   F583         MOV       DPH,A
   \   000007   22           RET

   \                                 In  segment BANKED_CODE, align 1, keep-with-next
   \                     ?Subroutine1:
   \   000000   F0           MOVX      @DPTR,A
   \   000001                REQUIRE ??Subroutine80_0
   \   000001                ; // Fall through to label ??Subroutine80_0

   \                                 In  segment BANKED_CODE, align 1, keep-with-next
   \                     ?Subroutine12:
   \   000000   12....       LCALL     ?Subroutine62 & 0xFFFF
   \                     ??CrossCallReturnLabel_97:
   \   000003   12....       LCALL     ?Subroutine64 & 0xFFFF
   \                     ??CrossCallReturnLabel_238:
   \   000006   22           RET

   \                                 In  segment BANKED_CODE, align 1, keep-with-next
   \                     ?Subroutine64:
   \   000000   E0           MOVX      A,@DPTR
   \   000001   F8           MOV       R0,A
   \   000002   A3           INC       DPTR
   \   000003   E0           MOVX      A,@DPTR
   \   000004   F9           MOV       R1,A
   \   000005   22           RET

   \                                 In  segment BANKED_CODE, align 1, keep-with-next
   \                     ??Subroutine91_0:
   \   000000   12....       LCALL     ?Subroutine65 & 0xFFFF
   \                     ??CrossCallReturnLabel_209:
   \   000003   22           RET

   \                                 In  segment BANKED_CODE, align 1, keep-with-next
   \                     ?Subroutine65:
   \   000000   E0           MOVX      A,@DPTR
   \   000001   FA           MOV       R2,A
   \   000002   A3           INC       DPTR
   \   000003   E0           MOVX      A,@DPTR
   \   000004   FB           MOV       R3,A
   \   000005   22           RET

   \                                 In  segment BANKED_CODE, align 1, keep-with-next
   \                     ??Subroutine97_0:
   \   000000   12....       LCALL     ?Subroutine64 & 0xFFFF
   \                     ??CrossCallReturnLabel_239:
   \   000003   E8           MOV       A,R0
   \   000004   49           ORL       A,R1
   \   000005   22           RET

   \                                 In  segment BANKED_CODE, align 1, keep-with-next
   \   __banked_func __xdata_reentrant void destroyAll(List **)
   \                     destroyAll:
   \   000000                REQUIRE ?V0
   \   000000                REQUIRE ?V1
   \   000000                REQUIRE ?V2
   \   000000                REQUIRE ?V3
   \   000000   74F4         MOV       A,#-0xc
   \   000002   12....       LCALL     ?BANKED_ENTER_XDATA
   \   000005                ; Saved register size: 12
   \   000005                ; Auto size: 0
   \   000005   8A..         MOV       ?V0,R2
   \   000007   8B..         MOV       ?V1,R3
   \   000009   EA           MOV       A,R2
   \   00000A   4B           ORL       A,R3
   \   00000B   7011         JNZ       ??destroyAll_0
   \   00000D                ; Setup parameters for call to function _Assert
   \   00000D   75..3F       MOV       ?V2,#0x3f
   \   000010   75..00       MOV       ?V3,#0x0
   \   000013   78..         MOV       R0,#?V2
   \   000015   12....       LCALL     ?PUSH_XSTACK_I_TWO
   \   000018   12....       LCALL     ?Subroutine7 & 0xFFFF
   \                     ??CrossCallReturnLabel_125:
   \   00001B   12....       LCALL     ?DEALLOC_XSTACK8
   \                     ??destroyAll_0:
   \   00001E   12....       LCALL     ?Subroutine28 & 0xFFFF
   \                     ??CrossCallReturnLabel_136:
   \   000021   800B         SJMP      ??destroyAll_1
   \                     ??destroyAll_2:
   \   000023   EE           MOV       A,R6
   \   000024   FA           MOV       R2,A
   \   000025   EF           MOV       A,R7
   \   000026   FB           MOV       R3,A
   \   000027   EE           MOV       A,R6
   \   000028   12....       LCALL     ?Subroutine10 & 0xFFFF
   \                     ??CrossCallReturnLabel_2:
   \   00002B                ; Setup parameters for call to function osal_mem_free
   \   00002B   12....       LCALL     `??osal_mem_free::?relay`; Banked call to: osal_mem_free
   \                     ??destroyAll_1:
   \   00002E   EE           MOV       A,R6
   \   00002F   4F           ORL       A,R7
   \   000030   70F1         JNZ       ??destroyAll_2
   \   000032   85..82       MOV       DPL,?V0
   \   000035   85..83       MOV       DPH,?V1
   \   000038   E4           CLR       A
   \   000039   F0           MOVX      @DPTR,A
   \   00003A   A3           INC       DPTR
   \   00003B   02....       LJMP      ?Subroutine1 & 0xFFFF

   \                                 In  segment BANKED_CODE, align 1, keep-with-next
   \                     ?Subroutine7:
   \   000000   7C..         MOV       R4,#`?<Constant "\\\\\\\\Mac\\\\Home\\\\Documents\\\\...">` & 0xff
   \   000002   7D..         MOV       R5,#(`?<Constant "\\\\\\\\Mac\\\\Home\\\\Documents\\\\...">` >> 8) & 0xff
   \   000004   7A..         MOV       R2,#`?<Constant "pHead">` & 0xff
   \   000006   7B..         MOV       R3,#(`?<Constant "pHead">` >> 8) & 0xff
   \   000008                REQUIRE ??Subroutine79_0
   \   000008                ; // Fall through to label ??Subroutine79_0

   \                                 In  segment BANKED_CODE, align 1, keep-with-next
   \                     ?Subroutine10:
   \   000000   12....       LCALL     ?Subroutine63 & 0xFFFF
   \                     ??CrossCallReturnLabel_99:
   \   000003   E0           MOVX      A,@DPTR
   \   000004   FE           MOV       R6,A
   \   000005   A3           INC       DPTR
   \   000006   E0           MOVX      A,@DPTR
   \   000007   FF           MOV       R7,A
   \   000008   22           RET

   \                                 In  segment BANKED_CODE, align 1, keep-with-next
   \                     ?Subroutine28:
   \   000000   85..82       MOV       DPL,?V0
   \   000003   85..83       MOV       DPH,?V1
   \   000006                REQUIRE ??Subroutine81_0
   \   000006                ; // Fall through to label ??Subroutine81_0

   \                                 In  segment BANKED_CODE, align 1, keep-with-next
   \                     ??Subroutine81_0:
   \   000000   E0           MOVX      A,@DPTR
   \   000001   FE           MOV       R6,A
   \   000002   A3           INC       DPTR
   \   000003   E0           MOVX      A,@DPTR
   \   000004   FF           MOV       R7,A
   \   000005   22           RET

   \                                 In  segment BANKED_CODE, align 1, keep-with-next
   \   __banked_func __xdata_reentrant void printList(List **)
   \                     printList:
   \   000000   74F7         MOV       A,#-0x9
   \   000002   12....       LCALL     ?BANKED_ENTER_XDATA
   \   000005                ; Saved register size: 9
   \   000005                ; Auto size: 0
   \   000005   8A82         MOV       DPL,R2
   \   000007   8B83         MOV       DPH,R3
   \   000009   8010         SJMP      ??CrossCallReturnLabel_5
   \                     ??printList_0:
   \   00000B                ; Setup parameters for call to function HalUARTWrite
   \   00000B   7C63         MOV       R4,#0x63
   \   00000D   7D00         MOV       R5,#0x0
   \   00000F   EE           MOV       A,R6
   \   000010   FA           MOV       R2,A
   \   000011   EF           MOV       A,R7
   \   000012   FB           MOV       R3,A
   \   000013   7900         MOV       R1,#0x0
   \   000015   12....       LCALL     `??HalUARTWrite::?relay`; Banked call to: HalUARTWrite
   \   000018   12....       LCALL     ?Subroutine11 & 0xFFFF
   \                     ??CrossCallReturnLabel_5:
   \   00001B   12....       LCALL     ??Subroutine81_0 & 0xFFFF
   \                     ??CrossCallReturnLabel_133:
   \   00001E   EE           MOV       A,R6
   \   00001F   4F           ORL       A,R7
   \   000020   70E9         JNZ       ??printList_0
   \   000022   02....       LJMP      ?Subroutine2 & 0xFFFF

   \                                 In  segment BANKED_CODE, align 1, keep-with-next
   \                     ?Subroutine2:
   \   000000   7F01         MOV       R7,#0x1
   \   000002   02....       LJMP      ?BANKED_LEAVE_XDATA

   \                                 In  segment BANKED_CODE, align 1, keep-with-next
   \   __banked_func __xdata_reentrant uint8 listSize(List **)
   \                     listSize:
   \   000000                REQUIRE ?V0
   \   000000                REQUIRE ?V1
   \   000000   74F6         MOV       A,#-0xa
   \   000002   12....       LCALL     ?BANKED_ENTER_XDATA
   \   000005                ; Saved register size: 10
   \   000005                ; Auto size: 0
   \   000005   EA           MOV       A,R2
   \   000006   FE           MOV       R6,A
   \   000007   EB           MOV       A,R3
   \   000008   FF           MOV       R7,A
   \   000009   EA           MOV       A,R2
   \   00000A   4F           ORL       A,R7
   \   00000B   7011         JNZ       ??listSize_0
   \   00000D                ; Setup parameters for call to function _Assert
   \   00000D   75..5D       MOV       ?V0,#0x5d
   \   000010   75..00       MOV       ?V1,#0x0
   \   000013   78..         MOV       R0,#?V0
   \   000015   12....       LCALL     ?PUSH_XSTACK_I_TWO
   \   000018   12....       LCALL     ?Subroutine7 & 0xFFFF
   \                     ??CrossCallReturnLabel_126:
   \   00001B   12....       LCALL     ?DEALLOC_XSTACK8
   \                     ??listSize_0:
   \   00001E   8E82         MOV       DPL,R6
   \   000020   8F83         MOV       DPH,R7
   \   000022   12....       LCALL     ??Subroutine91_0 & 0xFFFF
   \                     ??CrossCallReturnLabel_198:
   \   000025   7900         MOV       R1,#0x0
   \   000027   800B         SJMP      ??listSize_1
   \                     ??listSize_2:
   \   000029   EA           MOV       A,R2
   \   00002A   12....       LCALL     ?Subroutine17 & 0xFFFF
   \                     ??CrossCallReturnLabel_18:
   \   00002D   3B           ADDC      A,R3
   \   00002E   F583         MOV       DPH,A
   \   000030   12....       LCALL     ??Subroutine91_0 & 0xFFFF
   \                     ??CrossCallReturnLabel_199:
   \   000033   09           INC       R1
   \                     ??listSize_1:
   \   000034   EA           MOV       A,R2
   \   000035   4B           ORL       A,R3
   \   000036   70F1         JNZ       ??listSize_2
   \   000038   02....       LJMP      ?Subroutine0 & 0xFFFF

   \                                 In  segment BANKED_CODE, align 1, keep-with-next
   \                     ?Subroutine17:
   \   000000   12....       LCALL     ?Subroutine76 & 0xFFFF
   \                     ??CrossCallReturnLabel_120:
   \   000003   22           RET

   \                                 In  segment BANKED_CODE, align 1, keep-with-next
   \   __banked_func __xdata_reentrant List *get(List **, uint8)
   \                     get:
   \   000000                REQUIRE ?V0
   \   000000                REQUIRE ?V1
   \   000000                REQUIRE ?V2
   \   000000                REQUIRE ?V4
   \   000000                REQUIRE ?V5
   \   000000   74F2         MOV       A,#-0xe
   \   000002   12....       LCALL     ?BANKED_ENTER_XDATA
   \   000005                ; Saved register size: 14
   \   000005                ; Auto size: 0
   \   000005   8A..         MOV       ?V0,R2
   \   000007   8B..         MOV       ?V1,R3
   \   000009   89..         MOV       ?V2,R1
   \   00000B   EA           MOV       A,R2
   \   00000C   4B           ORL       A,R3
   \   00000D   7011         JNZ       ??get_0
   \   00000F                ; Setup parameters for call to function _Assert
   \   00000F   75..6C       MOV       ?V4,#0x6c
   \   000012   75..00       MOV       ?V5,#0x0
   \   000015   78..         MOV       R0,#?V4
   \   000017   12....       LCALL     ?PUSH_XSTACK_I_TWO
   \   00001A   12....       LCALL     ?Subroutine7 & 0xFFFF
   \                     ??CrossCallReturnLabel_127:
   \   00001D   12....       LCALL     ?DEALLOC_XSTACK8
   \                     ??get_0:
   \   000020   85..82       MOV       DPL,?V0
   \   000023   85..83       MOV       DPH,?V1
   \   000026   12....       LCALL     ??Subroutine97_0 & 0xFFFF
   \                     ??CrossCallReturnLabel_226:
   \   000029   6024         JZ        ??get_1
   \   00002B   12....       LCALL     ?Subroutine28 & 0xFFFF
   \                     ??CrossCallReturnLabel_137:
   \   00002E                ; Setup parameters for call to function listSize
   \   00002E   AA..         MOV       R2,?V0
   \   000030   AB..         MOV       R3,?V1
   \   000032   12....       LCALL     `??listSize::?relay`; Banked call to: listSize
   \   000035   E9           MOV       A,R1
   \   000036   C3           CLR       C
   \   000037   95..         SUBB      A,?V2
   \   000039   4014         JC        ??get_1
   \   00003B   7800         MOV       R0,#0x0
   \   00003D   8004         SJMP      ??get_2
   \                     ??get_3:
   \   00003F   12....       LCALL     ?Subroutine10 & 0xFFFF
   \                     ??CrossCallReturnLabel_3:
   \   000042   08           INC       R0
   \                     ??get_2:
   \   000043   E8           MOV       A,R0
   \   000044   C3           CLR       C
   \   000045   95..         SUBB      A,?V2
   \   000047   EE           MOV       A,R6
   \   000048   40F5         JC        ??get_3
   \   00004A   FA           MOV       R2,A
   \   00004B   EF           MOV       A,R7
   \   00004C   FB           MOV       R3,A
   \   00004D   8004         SJMP      ??get_4
   \                     ??get_1:
   \   00004F   7A00         MOV       R2,#0x0
   \   000051   7B00         MOV       R3,#0x0
   \                     ??get_4:
   \   000053   02....       LJMP      ??Subroutine90_0 & 0xFFFF

   \                                 In  segment BANKED_CODE, align 1, keep-with-next
   \                     ??Subroutine90_0:
   \   000000   7F06         MOV       R7,#0x6
   \   000002   02....       LJMP      ?BANKED_LEAVE_XDATA

   \                                 In  segment BANKED_CODE, align 1, keep-with-next
   \   __banked_func __xdata_reentrant void printListNode(List **, uint8)
   \                     printListNode:
   \   000000   74F7         MOV       A,#-0x9
   \   000002   12....       LCALL     ?BANKED_ENTER_XDATA
   \   000005                ; Saved register size: 9
   \   000005                ; Auto size: 0
   \   000005                ; Setup parameters for call to function get
   \   000005   12....       LCALL     `??get::?relay`  ; Banked call to: get
   \   000008   02....       LJMP      ?Subroutine2 & 0xFFFF

   \                                 In  segment BANKED_CODE, align 1, keep-with-next
   \   __banked_func __xdata_reentrant uint8 isEmpty(List **)
   \                     isEmpty:
   \   000000                REQUIRE ?V0
   \   000000                REQUIRE ?V1
   \   000000   74F6         MOV       A,#-0xa
   \   000002   12....       LCALL     ?BANKED_ENTER_XDATA
   \   000005                ; Saved register size: 10
   \   000005                ; Auto size: 0
   \   000005   EA           MOV       A,R2
   \   000006   FE           MOV       R6,A
   \   000007   EB           MOV       A,R3
   \   000008   FF           MOV       R7,A
   \   000009   EA           MOV       A,R2
   \   00000A   4F           ORL       A,R7
   \   00000B   7011         JNZ       ??isEmpty_0
   \   00000D                ; Setup parameters for call to function _Assert
   \   00000D   75..8E       MOV       ?V0,#-0x72
   \   000010   75..00       MOV       ?V1,#0x0
   \   000013   78..         MOV       R0,#?V0
   \   000015   12....       LCALL     ?PUSH_XSTACK_I_TWO
   \   000018   12....       LCALL     ?Subroutine7 & 0xFFFF
   \                     ??CrossCallReturnLabel_128:
   \   00001B   12....       LCALL     ?DEALLOC_XSTACK8
   \                     ??isEmpty_0:
   \   00001E   8E82         MOV       DPL,R6
   \   000020   8F83         MOV       DPH,R7
   \   000022   12....       LCALL     ??Subroutine97_0 & 0xFFFF
   \                     ??CrossCallReturnLabel_227:
   \   000025   7004         JNZ       ??isEmpty_1
   \   000027   7901         MOV       R1,#0x1
   \   000029   8002         SJMP      ??isEmpty_2
   \                     ??isEmpty_1:
   \   00002B   7900         MOV       R1,#0x0
   \                     ??isEmpty_2:
   \   00002D   02....       LJMP      ?Subroutine0 & 0xFFFF

   \                                 In  segment BANKED_CODE, align 1, keep-with-next
   \   __banked_func __xdata_reentrant void trim(List **)
   \                     trim:
   \   000000                REQUIRE ?V0
   \   000000                REQUIRE ?V1
   \   000000                REQUIRE ?V2
   \   000000                REQUIRE ?V3
   \   000000   74F4         MOV       A,#-0xc
   \   000002   12....       LCALL     ?BANKED_ENTER_XDATA
   \   000005                ; Saved register size: 12
   \   000005                ; Auto size: 0
   \   000005   EA           MOV       A,R2
   \   000006   FE           MOV       R6,A
   \   000007   EB           MOV       A,R3
   \   000008   FF           MOV       R7,A
   \   000009   EA           MOV       A,R2
   \   00000A   4F           ORL       A,R7
   \   00000B   702E         JNZ       ??trim_0
   \   00000D                ; Setup parameters for call to function _Assert
   \   00000D   75..96       MOV       ?V0,#-0x6a
   \   000010   75..00       MOV       ?V1,#0x0
   \   000013   78..         MOV       R0,#?V0
   \   000015   12....       LCALL     ?PUSH_XSTACK_I_TWO
   \   000018   12....       LCALL     ?Subroutine7 & 0xFFFF
   \                     ??CrossCallReturnLabel_129:
   \   00001B   12....       LCALL     ?DEALLOC_XSTACK8
   \   00001E   802E         SJMP      ??trim_1
   \                     ??trim_2:
   \   000020   8E82         MOV       DPL,R6
   \   000022   8F83         MOV       DPH,R7
   \   000024   E0           MOVX      A,@DPTR
   \   000025   F8           MOV       R0,A
   \   000026   A3           INC       DPTR
   \   000027   E0           MOVX      A,@DPTR
   \   000028   C8           XCH       A,R0
   \   000029   12....       LCALL     ?Subroutine17 & 0xFFFF
   \                     ??CrossCallReturnLabel_19:
   \   00002C   38           ADDC      A,R0
   \   00002D   F583         MOV       DPH,A
   \   00002F   12....       LCALL     ?Subroutine64 & 0xFFFF
   \                     ??CrossCallReturnLabel_236:
   \   000032   8E82         MOV       DPL,R6
   \   000034   8F83         MOV       DPH,R7
   \   000036   E8           MOV       A,R0
   \   000037   F0           MOVX      @DPTR,A
   \   000038   A3           INC       DPTR
   \   000039   E9           MOV       A,R1
   \   00003A   F0           MOVX      @DPTR,A
   \                     ??trim_0:
   \   00003B                ; Setup parameters for call to function charTrim
   \   00003B   8E82         MOV       DPL,R6
   \   00003D   8F83         MOV       DPH,R7
   \   00003F   12....       LCALL     ??Subroutine91_0 & 0xFFFF
   \                     ??CrossCallReturnLabel_200:
   \   000042   12....       LCALL     `??charTrim::?relay`; Banked call to: charTrim
   \   000045                ; Setup parameters for call to function strcmp
   \   000045   7C..         MOV       R4,#`?<Constant "">` & 0xff
   \   000047   7D..         MOV       R5,#(`?<Constant "">` >> 8) & 0xff
   \   000049   12....       LCALL     ??Subroutine83_0 & 0xFFFF
   \                     ??CrossCallReturnLabel_150:
   \   00004C   60D2         JZ        ??trim_2
   \                     ??trim_1:
   \   00004E   8E82         MOV       DPL,R6
   \   000050   8F83         MOV       DPH,R7
   \   000052   E0           MOVX      A,@DPTR
   \   000053   F5..         MOV       ?V0,A
   \   000055   A3           INC       DPTR
   \   000056   E0           MOVX      A,@DPTR
   \   000057   F5..         MOV       ?V1,A
   \   000059   E5..         MOV       A,?V0
   \   00005B   12....       LCALL     ?Subroutine17 & 0xFFFF
   \                     ??CrossCallReturnLabel_20:
   \   00005E   35..         ADDC      A,?V1
   \   000060   8009         SJMP      ??trim_3
   \                     ??trim_4:
   \   000062   8E..         MOV       ?V0,R6
   \   000064   8F..         MOV       ?V1,R7
   \                     ??trim_5:
   \   000066   EE           MOV       A,R6
   \   000067   12....       LCALL     ?Subroutine17 & 0xFFFF
   \                     ??CrossCallReturnLabel_21:
   \   00006A   3F           ADDC      A,R7
   \                     ??trim_3:
   \   00006B   F583         MOV       DPH,A
   \   00006D   12....       LCALL     ??Subroutine81_0 & 0xFFFF
   \                     ??CrossCallReturnLabel_134:
   \   000070   EE           MOV       A,R6
   \   000071   4F           ORL       A,R7
   \   000072   602A         JZ        ??trim_6
   \   000074                ; Setup parameters for call to function charTrim
   \   000074   EE           MOV       A,R6
   \   000075   FA           MOV       R2,A
   \   000076   EF           MOV       A,R7
   \   000077   FB           MOV       R3,A
   \   000078   12....       LCALL     `??charTrim::?relay`; Banked call to: charTrim
   \   00007B                ; Setup parameters for call to function strcmp
   \   00007B   7C..         MOV       R4,#`?<Constant "">` & 0xff
   \   00007D   7D..         MOV       R5,#(`?<Constant "">` >> 8) & 0xff
   \   00007F   12....       LCALL     ??Subroutine83_0 & 0xFFFF
   \                     ??CrossCallReturnLabel_151:
   \   000082   70DE         JNZ       ??trim_4
   \   000084   12....       LCALL     ?Subroutine11 & 0xFFFF
   \                     ??CrossCallReturnLabel_6:
   \   000087   12....       LCALL     ??Subroutine97_0 & 0xFFFF
   \                     ??CrossCallReturnLabel_228:
   \   00008A   6009         JZ        ??trim_7
   \   00008C   12....       LCALL     ?Subroutine15 & 0xFFFF
   \                     ??CrossCallReturnLabel_14:
   \   00008F   E8           MOV       A,R0
   \   000090   F0           MOVX      @DPTR,A
   \   000091   A3           INC       DPTR
   \   000092   E9           MOV       A,R1
   \   000093   8006         SJMP      ??trim_8
   \                     ??trim_7:
   \   000095   12....       LCALL     ?Subroutine15 & 0xFFFF
   \                     ??CrossCallReturnLabel_15:
   \   000098   E4           CLR       A
   \   000099   F0           MOVX      @DPTR,A
   \   00009A   A3           INC       DPTR
   \                     ??trim_8:
   \   00009B   F0           MOVX      @DPTR,A
   \   00009C   80C8         SJMP      ??trim_5
   \                     ??trim_6:
   \   00009E   80..         SJMP      ??Subroutine80_0

   \                                 In  segment BANKED_CODE, align 1, keep-with-next
   \                     ?Subroutine15:
   \   000000   E5..         MOV       A,?V0
   \   000002   12....       LCALL     ?Subroutine76 & 0xFFFF
   \                     ??CrossCallReturnLabel_119:
   \   000005   35..         ADDC      A,?V1
   \   000007   F583         MOV       DPH,A
   \   000009   22           RET

   \                                 In  segment BANKED_CODE, align 1, keep-with-next
   \                     ??Subroutine83_0:
   \   000000   12....       LCALL     `??strcmp::?relay`; Banked call to: strcmp
   \   000003   EA           MOV       A,R2
   \   000004   4B           ORL       A,R3
   \   000005   22           RET

   \                                 In  segment BANKED_CODE, align 1, keep-with-next
   \   __banked_func __xdata_reentrant char *charTrim(char *)
   \                     charTrim:
   \   000000                REQUIRE ?V0
   \   000000                REQUIRE ?V1
   \   000000                REQUIRE ?V2
   \   000000                REQUIRE ?V3
   \   000000                REQUIRE ?V4
   \   000000                REQUIRE ?V5
   \   000000                REQUIRE ?V6
   \   000000   74F1         MOV       A,#-0xf
   \   000002   12....       LCALL     ?BANKED_ENTER_XDATA
   \   000005                ; Saved register size: 15
   \   000005                ; Auto size: 2
   \   000005   74FE         MOV       A,#-0x2
   \   000007   12....       LCALL     ?ALLOC_XSTACK8
   \   00000A   12....       LCALL     ?Subroutine9 & 0xFFFF
   \                     ??CrossCallReturnLabel_141:
   \   00000D   85..82       MOV       DPL,?XSP + 0
   \   000010   85..83       MOV       DPH,?XSP + 1
   \   000013   12....       LCALL     ??Subroutine81_0 & 0xFFFF
   \                     ??CrossCallReturnLabel_135:
   \   000016   85..82       MOV       DPL,?XSP + 0
   \   000019   85..83       MOV       DPH,?XSP + 1
   \   00001C   E0           MOVX      A,@DPTR
   \   00001D   F5..         MOV       ?V2,A
   \   00001F   A3           INC       DPTR
   \   000020   E0           MOVX      A,@DPTR
   \   000021   F5..         MOV       ?V3,A
   \   000023   75..00       MOV       ?V6,#0x0
   \   000026   8030         SJMP      ??charTrim_0
   \                     ??charTrim_1:
   \   000028   A3           INC       DPTR
   \   000029   AE82         MOV       R6,DPL
   \   00002B   AF83         MOV       R7,DPH
   \   00002D   05..         INC       ?V6
   \                     ??charTrim_2:
   \   00002F   8E82         MOV       DPL,R6
   \   000031   8F83         MOV       DPH,R7
   \   000033   E0           MOVX      A,@DPTR
   \   000034   6420         XRL       A,#0x20
   \   000036   60F0         JZ        ??charTrim_1
   \                     ??charTrim_3:
   \   000038   E0           MOVX      A,@DPTR
   \   000039   85..82       MOV       DPL,?V2
   \   00003C   85..83       MOV       DPH,?V3
   \   00003F   F0           MOVX      @DPTR,A
   \   000040   8E82         MOV       DPL,R6
   \   000042   8F83         MOV       DPH,R7
   \   000044   A3           INC       DPTR
   \   000045   AE82         MOV       R6,DPL
   \   000047   AF83         MOV       R7,DPH
   \   000049   85..82       MOV       DPL,?V2
   \   00004C   85..83       MOV       DPH,?V3
   \   00004F   A3           INC       DPTR
   \   000050   8582..       MOV       ?V2,DPL
   \   000053   8583..       MOV       ?V3,DPH
   \   000056   05..         INC       ?V6
   \                     ??charTrim_0:
   \   000058   E5..         MOV       A,?V6
   \   00005A   F5..         MOV       ?V0,A
   \   00005C                ; Setup parameters for call to function strlen
   \   00005C   12....       LCALL     ?Subroutine30 & 0xFFFF
   \                     ??CrossCallReturnLabel_203:
   \   00005F   12....       LCALL     ?Subroutine69 & 0xFFFF
   \                     ??CrossCallReturnLabel_171:
   \   000062   E5..         MOV       A,?V0
   \   000064   95..         SUBB      A,?V4
   \   000066   E4           CLR       A
   \   000067   95..         SUBB      A,?V5
   \   000069   500B         JNC       ??charTrim_4
   \   00006B   8E82         MOV       DPL,R6
   \   00006D   8F83         MOV       DPH,R7
   \   00006F   E0           MOVX      A,@DPTR
   \   000070   6420         XRL       A,#0x20
   \   000072   60BB         JZ        ??charTrim_2
   \   000074   80C2         SJMP      ??charTrim_3
   \                     ??charTrim_4:
   \   000076   85..82       MOV       DPL,?V2
   \   000079   85..83       MOV       DPH,?V3
   \   00007C   E4           CLR       A
   \   00007D   F0           MOVX      @DPTR,A
   \   00007E   12....       LCALL     ?Subroutine30 & 0xFFFF
   \                     ??CrossCallReturnLabel_204:
   \   000081   7402         MOV       A,#0x2
   \   000083                REQUIRE ?Subroutine4
   \   000083                ; // Fall through to label ?Subroutine4

   \                                 In  segment BANKED_CODE, align 1, keep-with-next
   \                     ?Subroutine4:
   \   000000   12....       LCALL     ?DEALLOC_XSTACK8
   \   000003   7F07         MOV       R7,#0x7
   \   000005   02....       LJMP      ?BANKED_LEAVE_XDATA

   \                                 In  segment BANKED_CODE, align 1, keep-with-next
   \                     ?Subroutine9:
   \   000000   85..82       MOV       DPL,?XSP + 0
   \   000003   85..83       MOV       DPH,?XSP + 1
   \   000006                REQUIRE ??Subroutine82_0
   \   000006                ; // Fall through to label ??Subroutine82_0

   \                                 In  segment BANKED_CODE, align 1, keep-with-next
   \                     ??Subroutine82_0:
   \   000000   EA           MOV       A,R2
   \   000001   F0           MOVX      @DPTR,A
   \   000002   A3           INC       DPTR
   \   000003   EB           MOV       A,R3
   \   000004   F0           MOVX      @DPTR,A
   \   000005   22           RET

   \                                 In  segment BANKED_CODE, align 1, keep-with-next
   \                     ?Subroutine69:
   \   000000   12....       LCALL     `??strlen::?relay`; Banked call to: strlen
   \   000003   8A..         MOV       ?V4,R2
   \   000005   8B..         MOV       ?V5,R3
   \   000007   C3           CLR       C
   \   000008   22           RET

   \                                 In  segment BANKED_CODE, align 1, keep-with-next
   \                     ?Subroutine30:
   \   000000   85..82       MOV       DPL,?XSP + 0
   \   000003   85..83       MOV       DPH,?XSP + 1
   \   000006                REQUIRE ??Subroutine91_0
   \   000006                ; // Fall through to label ??Subroutine91_0

   \                                 In  segment BANKED_CODE, align 1, keep-with-next
   \   __banked_func __xdata_reentrant char *toString(List **)
   \                     toString:
   \   000000   C082         PUSH      DPL
   \   000002   C083         PUSH      DPH
   \   000004                ; Saved register size: 2
   \   000004                ; Auto size: 100
   \   000004   749C         MOV       A,#-0x64
   \   000006   12....       LCALL     ?ALLOC_XSTACK8
   \   000009   8A82         MOV       DPL,R2
   \   00000B   8B83         MOV       DPH,R3
   \   00000D   12....       LCALL     ?Subroutine64 & 0xFFFF
   \                     ??CrossCallReturnLabel_237:
   \   000010   EA           MOV       A,R2
   \   000011   4B           ORL       A,R3
   \   000012   700F         JNZ       ??CrossCallReturnLabel_8
   \   000014   7A00         MOV       R2,#0x0
   \   000016   7B00         MOV       R3,#0x0
   \                     ??toString_0:
   \   000018   7464         MOV       A,#0x64
   \   00001A   12....       LCALL     ?DEALLOC_XSTACK8
   \   00001D   02....       LJMP      ?Subroutine5 & 0xFFFF
   \                     ??toString_1:
   \   000020   12....       LCALL     ?Subroutine12 & 0xFFFF
   \                     ??CrossCallReturnLabel_8:
   \   000023   E8           MOV       A,R0
   \   000024   49           ORL       A,R1
   \   000025   70F9         JNZ       ??toString_1
   \   000027   AA..         MOV       R2,?XSP + 0
   \   000029   AB..         MOV       R3,?XSP + 1
   \   00002B   80EB         SJMP      ??toString_0

   \                                 In  segment BANKED_CODE, align 1, keep-with-next
   \                     ?Subroutine5:
   \   000000   D083         POP       DPH
   \   000002   D082         POP       DPL
   \   000004   02....       LJMP      ?BRET

   \                                 In  segment XDATA_Z, align 1, keep-with-next
   \   char substr2[255]
   \                     substr2:
   \   000000                DS 255
   \   0000FF                REQUIRE __INIT_XDATA_Z

   \                                 In  segment BANKED_CODE, align 1, keep-with-next
   \   __banked_func __xdata_reentrant char *intToStr(uint8)
   \                     intToStr:
   \   000000                REQUIRE ?V0
   \   000000   74F7         MOV       A,#-0x9
   \   000002   12....       LCALL     ?BANKED_ENTER_XDATA
   \   000005                ; Saved register size: 9
   \   000005                ; Auto size: 0
   \   000005   89..         MOV       ?V0,R1
   \   000007   7E05         MOV       R6,#0x5
   \   000009   8001         SJMP      ??intToStr_0
   \                     ??intToStr_1:
   \   00000B   1E           DEC       R6
   \                     ??intToStr_0:
   \   00000C                ; Setup parameters for call to function tenSqure
   \   00000C   12....       LCALL     ?Subroutine42 & 0xFFFF
   \                     ??CrossCallReturnLabel_60:
   \   00000F   940A         SUBB      A,#0xa
   \   000011   50F8         JNC       ??intToStr_1
   \   000013                ; Setup parameters for call to function tenSqure
   \   000013   12....       LCALL     ?Subroutine42 & 0xFFFF
   \                     ??CrossCallReturnLabel_61:
   \   000016   60F3         JZ        ??intToStr_1
   \   000018   EE           MOV       A,R6
   \   000019   FF           MOV       R7,A
   \                     ??intToStr_2:
   \   00001A                ; Setup parameters for call to function tenSqure
   \   00001A   EF           MOV       A,R7
   \   00001B   F9           MOV       R1,A
   \   00001C   12....       LCALL     `??tenSqure::?relay`; Banked call to: tenSqure
   \   00001F                ; Setup parameters for call to function tenSqure
   \   00001F   EF           MOV       A,R7
   \   000020   F9           MOV       R1,A
   \   000021   12....       LCALL     `??tenSqure::?relay`; Banked call to: tenSqure
   \   000024   1F           DEC       R7
   \   000025   80F3         SJMP      ??intToStr_2

   \                                 In  segment BANKED_CODE, align 1, keep-with-next
   \                     ?Subroutine42:
   \   000000   EE           MOV       A,R6
   \   000001   F9           MOV       R1,A
   \   000002   12....       LCALL     `??tenSqure::?relay`; Banked call to: tenSqure
   \   000005   E9           MOV       A,R1
   \   000006   F5F0         MOV       B,A
   \   000008   E5..         MOV       A,?V0
   \   00000A   84           DIV       AB
   \   00000B   22           RET

   \                                 In  segment BANKED_CODE, align 1, keep-with-next
   \   __banked_func __xdata_reentrant uint8 doSomething(char *)
   \                     doSomething:
   \   000000   74F7         MOV       A,#-0x9
   \   000002   12....       LCALL     ?BANKED_ENTER_XDATA
   \   000005                ; Saved register size: 9
   \   000005                ; Auto size: 4
   \   000005   74FC         MOV       A,#-0x4
   \   000007   12....       LCALL     ?ALLOC_XSTACK8
   \   00000A   EA           MOV       A,R2
   \   00000B   FE           MOV       R6,A
   \   00000C   EB           MOV       A,R3
   \   00000D   FF           MOV       R7,A
   \   00000E                ; Setup parameters for call to function init
   \   00000E   AA..         MOV       R2,?XSP + 0
   \   000010   AB..         MOV       R3,?XSP + 1
   \   000012   12....       LCALL     `??init::?relay` ; Banked call to: init
   \   000015                ; Setup parameters for call to function splitStr
   \   000015   EE           MOV       A,R6
   \   000016   FA           MOV       R2,A
   \   000017   EF           MOV       A,R7
   \   000018   FB           MOV       R3,A
   \   000019   12....       LCALL     `??splitStr::?relay`; Banked call to: splitStr
   \   00001C   12....       LCALL     ?Subroutine9 & 0xFFFF
   \                     ??CrossCallReturnLabel_142:
   \   00001F                ; Setup parameters for call to function trim
   \   00001F   AA..         MOV       R2,?XSP + 0
   \   000021   AB..         MOV       R3,?XSP + 1
   \   000023   12....       LCALL     `??trim::?relay` ; Banked call to: trim
   \   000026                ; Setup parameters for call to function init
   \   000026   7402         MOV       A,#0x2
   \   000028   12....       LCALL     ?XSTACK_DISP101_8
   \   00002B   12....       LCALL     `??init::?relay` ; Banked call to: init
   \   00002E                ; Setup parameters for call to function judgeInfo_list
   \   00002E   7900         MOV       R1,#0x0
   \   000030   85..82       MOV       DPL,?XSP + 0
   \   000033   85..83       MOV       DPH,?XSP + 1
   \   000036   12....       LCALL     ?Subroutine29 & 0xFFFF
   \                     ??CrossCallReturnLabel_43:
   \   000039   7404         MOV       A,#0x4
   \   00003B   12....       LCALL     ?DEALLOC_XSTACK8
   \   00003E                REQUIRE ?Subroutine2
   \   00003E                ; // Fall through to label ?Subroutine2

   \                                 In  segment BANKED_CODE, align 1, keep-with-next
   \                     ?Subroutine29:
   \   000000   12....       LCALL     ?Subroutine65 & 0xFFFF
   \                     ??CrossCallReturnLabel_208:
   \   000003   12....       LCALL     `??judgeInfo_list::?relay`; Banked call to: judgeInfo_list
   \   000006   22           RET

   \                                 In  segment XDATA_I, align 1, keep-with-next
   \   char at[3]
   \                     at:
   \   000000                DS 3
   \   000003                REQUIRE `?<Initializer for at>`
   \   000003                REQUIRE __INIT_XDATA_I

   \                                 In  segment XDATA_I, align 1, keep-with-next
   \   char rst[4]
   \                     rst:
   \   000000                DS 4
   \   000004                REQUIRE `?<Initializer for rst>`
   \   000004                REQUIRE __INIT_XDATA_I

   \                                 In  segment XDATA_I, align 1, keep-with-next
   \   char cwmode_1[9]
   \                     cwmode_1:
   \   000000                DS 9
   \   000009                REQUIRE `?<Initializer for cwmode_1>`
   \   000009                REQUIRE __INIT_XDATA_I

   \                                 In  segment XDATA_I, align 1, keep-with-next
   \   char cwmode_2[9]
   \                     cwmode_2:
   \   000000                DS 9
   \   000009                REQUIRE `?<Initializer for cwmode_2>`
   \   000009                REQUIRE __INIT_XDATA_I

   \                                 In  segment XDATA_I, align 1, keep-with-next
   \   char cwmode_3[9]
   \                     cwmode_3:
   \   000000                DS 9
   \   000009                REQUIRE `?<Initializer for cwmode_3>`
   \   000009                REQUIRE __INIT_XDATA_I

   \                                 In  segment XDATA_I, align 1, keep-with-next
   \   char cwmode_question_mark[8]
   \                     cwmode_question_mark:
   \   000000                DS 8
   \   000008                REQUIRE `?<Initializer for cwmode_question_mark>`
   \   000008                REQUIRE __INIT_XDATA_I

   \                                 In  segment XDATA_I, align 1, keep-with-next
   \   char cipmux[9]
   \                     cipmux:
   \   000000                DS 9
   \   000009                REQUIRE `?<Initializer for cipmux>`
   \   000009                REQUIRE __INIT_XDATA_I

   \                                 In  segment XDATA_I, align 1, keep-with-next
   \   char cipserver[10]
   \                     cipserver:
   \   000000                DS 10
   \   00000A                REQUIRE `?<Initializer for cipserver>`
   \   00000A                REQUIRE __INIT_XDATA_I

   \                                 In  segment XDATA_I, align 1, keep-with-next
   \   char cipstart[9]
   \                     cipstart:
   \   000000                DS 9
   \   000009                REQUIRE `?<Initializer for cipstart>`
   \   000009                REQUIRE __INIT_XDATA_I

   \                                 In  segment XDATA_I, align 1, keep-with-next
   \   char cipstatus[10]
   \                     cipstatus:
   \   000000                DS 10
   \   00000A                REQUIRE `?<Initializer for cipstatus>`
   \   00000A                REQUIRE __INIT_XDATA_I

   \                                 In  segment XDATA_I, align 1, keep-with-next
   \   char cipsend[8]
   \                     cipsend:
   \   000000                DS 8
   \   000008                REQUIRE `?<Initializer for cipsend>`
   \   000008                REQUIRE __INIT_XDATA_I

   \                                 In  segment XDATA_I, align 1, keep-with-next
   \   char sendok[7]
   \                     sendok:
   \   000000                DS 7
   \   000007                REQUIRE `?<Initializer for sendok>`
   \   000007                REQUIRE __INIT_XDATA_I

   \                                 In  segment XDATA_I, align 1, keep-with-next
   \   char error[6]
   \                     error:
   \   000000                DS 6
   \   000006                REQUIRE `?<Initializer for error>`
   \   000006                REQUIRE __INIT_XDATA_I

   \                                 In  segment XDATA_I, align 1, keep-with-next
   \   char arrow[2]
   \                     arrow:
   \   000000                DS 2
   \   000002                REQUIRE `?<Initializer for arrow>`
   \   000002                REQUIRE __INIT_XDATA_I

   \                                 In  segment XDATA_I, align 1, keep-with-next
   \   char cwlif[6]
   \                     cwlif:
   \   000000                DS 6
   \   000006                REQUIRE `?<Initializer for cwlif>`
   \   000006                REQUIRE __INIT_XDATA_I

   \                                 In  segment XDATA_I, align 1, keep-with-next
   \   char cwlap[6]
   \                     cwlap:
   \   000000                DS 6
   \   000006                REQUIRE `?<Initializer for cwlap>`
   \   000006                REQUIRE __INIT_XDATA_I

   \                                 In  segment XDATA_I, align 1, keep-with-next
   \   char cifsr[6]
   \                     cifsr:
   \   000000                DS 6
   \   000006                REQUIRE `?<Initializer for cifsr>`
   \   000006                REQUIRE __INIT_XDATA_I

   \                                 In  segment XDATA_I, align 1, keep-with-next
   \   char ipd[5]
   \                     ipd:
   \   000000                DS 5
   \   000005                REQUIRE `?<Initializer for ipd>`
   \   000005                REQUIRE __INIT_XDATA_I

   \                                 In  segment XDATA_I, align 1, keep-with-next
   \   char connect[10]
   \                     connect:
   \   000000                DS 10
   \   00000A                REQUIRE `?<Initializer for connect>`
   \   00000A                REQUIRE __INIT_XDATA_I

   \                                 In  segment BANKED_CODE, align 1, keep-with-next
   \   __banked_func __xdata_reentrant uint8 judgeInfo(char *)
   \                     judgeInfo:
   \   000000                REQUIRE ?V0
   \   000000                REQUIRE ?V1
   \   000000                REQUIRE ?V2
   \   000000                REQUIRE ?V3
   \   000000   74F4         MOV       A,#-0xc
   \   000002   12....       LCALL     ?BANKED_ENTER_XDATA
   \   000005                ; Saved register size: 12
   \   000005                ; Auto size: 0
   \   000005   8A..         MOV       ?V0,R2
   \   000007   8B..         MOV       ?V1,R3
   \   000009                ; Setup parameters for call to function getInfoBeforeChar
   \   000009   792B         MOV       R1,#0x2b
   \   00000B   12....       LCALL     `??getInfoBeforeChar::?relay`; Banked call to: getInfoBeforeChar
   \   00000E                ; Setup parameters for call to function strcmp
   \   00000E   7C..         MOV       R4,#at & 0xff
   \   000010   7D..         MOV       R5,#(at >> 8) & 0xff
   \   000012   12....       LCALL     ??Subroutine83_0 & 0xFFFF
   \                     ??CrossCallReturnLabel_152:
   \   000015   6003         JZ        $+5
   \   000017   02....       LJMP      ??judgeInfo_0 & 0xFFFF
   \   00001A                ; Setup parameters for call to function deleteBeforeChar
   \   00001A   792B         MOV       R1,#0x2b
   \   00001C   AA..         MOV       R2,?V0
   \   00001E   AB..         MOV       R3,?V1
   \   000020   12....       LCALL     `??deleteBeforeChar::?relay`; Banked call to: deleteBeforeChar
   \   000023   8A..         MOV       ?V0,R2
   \   000025   8B..         MOV       ?V1,R3
   \   000027   AE..         MOV       R6,?V0
   \   000029   AF..         MOV       R7,?V1
   \   00002B                ; Setup parameters for call to function strcmp
   \   00002B   7C..         MOV       R4,#rst & 0xff
   \   00002D   7D..         MOV       R5,#(rst >> 8) & 0xff
   \   00002F   12....       LCALL     ??Subroutine83_0 & 0xFFFF
   \                     ??CrossCallReturnLabel_153:
   \   000032   7005         JNZ       ??judgeInfo_1
   \   000034   7900         MOV       R1,#0x0
   \   000036   02....       LJMP      ??judgeInfo_2 & 0xFFFF
   \                     ??judgeInfo_1:
   \   000039                ; Setup parameters for call to function strcmp
   \   000039   7C..         MOV       R4,#cwmode_1 & 0xff
   \   00003B   7D..         MOV       R5,#(cwmode_1 >> 8) & 0xff
   \   00003D   12....       LCALL     ?Subroutine36 & 0xFFFF
   \                     ??CrossCallReturnLabel_145:
   \   000040   7005         JNZ       ??judgeInfo_3
   \   000042   7901         MOV       R1,#0x1
   \   000044   02....       LJMP      ??judgeInfo_2 & 0xFFFF
   \                     ??judgeInfo_3:
   \   000047                ; Setup parameters for call to function strcmp
   \   000047   7C..         MOV       R4,#cwmode_2 & 0xff
   \   000049   7D..         MOV       R5,#(cwmode_2 >> 8) & 0xff
   \   00004B   12....       LCALL     ?Subroutine36 & 0xFFFF
   \                     ??CrossCallReturnLabel_146:
   \   00004E   7005         JNZ       ??judgeInfo_4
   \   000050   7902         MOV       R1,#0x2
   \   000052   02....       LJMP      ??judgeInfo_2 & 0xFFFF
   \                     ??judgeInfo_4:
   \   000055                ; Setup parameters for call to function strcmp
   \   000055   7C..         MOV       R4,#cwmode_3 & 0xff
   \   000057   7D..         MOV       R5,#(cwmode_3 >> 8) & 0xff
   \   000059   12....       LCALL     ?Subroutine36 & 0xFFFF
   \                     ??CrossCallReturnLabel_147:
   \   00005C   7005         JNZ       ??judgeInfo_5
   \   00005E   7903         MOV       R1,#0x3
   \   000060   02....       LJMP      ??judgeInfo_2 & 0xFFFF
   \                     ??judgeInfo_5:
   \   000063                ; Setup parameters for call to function strcmp
   \   000063   7C..         MOV       R4,#cwmode_question_mark & 0xff
   \   000065   7D..         MOV       R5,#(cwmode_question_mark >> 8) & 0xff
   \   000067   12....       LCALL     ?Subroutine36 & 0xFFFF
   \                     ??CrossCallReturnLabel_148:
   \   00006A   7005         JNZ       ??judgeInfo_6
   \   00006C   7904         MOV       R1,#0x4
   \   00006E   02....       LJMP      ??judgeInfo_2 & 0xFFFF
   \                     ??judgeInfo_6:
   \   000071                ; Setup parameters for call to function strcmp
   \   000071   7C..         MOV       R4,#cipmux & 0xff
   \   000073   7D..         MOV       R5,#(cipmux >> 8) & 0xff
   \   000075   12....       LCALL     ?Subroutine36 & 0xFFFF
   \                     ??CrossCallReturnLabel_149:
   \   000078   7005         JNZ       ??judgeInfo_7
   \   00007A   7905         MOV       R1,#0x5
   \   00007C   02....       LJMP      ??judgeInfo_2 & 0xFFFF
   \                     ??judgeInfo_7:
   \   00007F                ; Setup parameters for call to function firstAlphaStr
   \   00007F   EE           MOV       A,R6
   \   000080   FA           MOV       R2,A
   \   000081   EF           MOV       A,R7
   \   000082   FB           MOV       R3,A
   \   000083   12....       LCALL     `??firstAlphaStr::?relay`; Banked call to: firstAlphaStr
   \   000086                ; Setup parameters for call to function strcmp
   \   000086   7C..         MOV       R4,#cipserver & 0xff
   \   000088   7D..         MOV       R5,#(cipserver >> 8) & 0xff
   \   00008A   12....       LCALL     ??Subroutine83_0 & 0xFFFF
   \                     ??CrossCallReturnLabel_154:
   \   00008D   7005         JNZ       ??judgeInfo_8
   \   00008F   7906         MOV       R1,#0x6
   \   000091   02....       LJMP      ??judgeInfo_2 & 0xFFFF
   \                     ??judgeInfo_8:
   \   000094                ; Setup parameters for call to function firstAlphaStr
   \   000094   EE           MOV       A,R6
   \   000095   FA           MOV       R2,A
   \   000096   EF           MOV       A,R7
   \   000097   FB           MOV       R3,A
   \   000098   12....       LCALL     `??firstAlphaStr::?relay`; Banked call to: firstAlphaStr
   \   00009B                ; Setup parameters for call to function strcmp
   \   00009B   7C..         MOV       R4,#cipstart & 0xff
   \   00009D   7D..         MOV       R5,#(cipstart >> 8) & 0xff
   \   00009F   12....       LCALL     ??Subroutine83_0 & 0xFFFF
   \                     ??CrossCallReturnLabel_155:
   \   0000A2   7005         JNZ       ??judgeInfo_9
   \   0000A4   7907         MOV       R1,#0x7
   \   0000A6   02....       LJMP      ??judgeInfo_2 & 0xFFFF
   \                     ??judgeInfo_9:
   \   0000A9                ; Setup parameters for call to function firstAlphaStr
   \   0000A9   EE           MOV       A,R6
   \   0000AA   FA           MOV       R2,A
   \   0000AB   EF           MOV       A,R7
   \   0000AC   FB           MOV       R3,A
   \   0000AD   12....       LCALL     `??firstAlphaStr::?relay`; Banked call to: firstAlphaStr
   \   0000B0                ; Setup parameters for call to function strcmp
   \   0000B0   7C..         MOV       R4,#cipstatus & 0xff
   \   0000B2   7D..         MOV       R5,#(cipstatus >> 8) & 0xff
   \   0000B4   12....       LCALL     ??Subroutine83_0 & 0xFFFF
   \                     ??CrossCallReturnLabel_156:
   \   0000B7   7005         JNZ       ??judgeInfo_10
   \   0000B9   7908         MOV       R1,#0x8
   \   0000BB   02....       LJMP      ??judgeInfo_2 & 0xFFFF
   \                     ??judgeInfo_10:
   \   0000BE                ; Setup parameters for call to function firstAlphaStr
   \   0000BE   EE           MOV       A,R6
   \   0000BF   FA           MOV       R2,A
   \   0000C0   EF           MOV       A,R7
   \   0000C1   FB           MOV       R3,A
   \   0000C2   12....       LCALL     `??firstAlphaStr::?relay`; Banked call to: firstAlphaStr
   \   0000C5                ; Setup parameters for call to function strcmp
   \   0000C5   7C..         MOV       R4,#cipsend & 0xff
   \   0000C7   7D..         MOV       R5,#(cipsend >> 8) & 0xff
   \   0000C9   12....       LCALL     ??Subroutine83_0 & 0xFFFF
   \                     ??CrossCallReturnLabel_157:
   \   0000CC   7005         JNZ       ??judgeInfo_11
   \   0000CE   7909         MOV       R1,#0x9
   \   0000D0   02....       LJMP      ??judgeInfo_2 & 0xFFFF
   \                     ??judgeInfo_11:
   \   0000D3                ; Setup parameters for call to function firstAlphaStr
   \   0000D3   EE           MOV       A,R6
   \   0000D4   FA           MOV       R2,A
   \   0000D5   EF           MOV       A,R7
   \   0000D6   FB           MOV       R3,A
   \   0000D7   12....       LCALL     `??firstAlphaStr::?relay`; Banked call to: firstAlphaStr
   \   0000DA                ; Setup parameters for call to function strcmp
   \   0000DA   7C..         MOV       R4,#cwlif & 0xff
   \   0000DC   7D..         MOV       R5,#(cwlif >> 8) & 0xff
   \   0000DE   12....       LCALL     ??Subroutine83_0 & 0xFFFF
   \                     ??CrossCallReturnLabel_158:
   \   0000E1   7005         JNZ       ??judgeInfo_12
   \   0000E3   790A         MOV       R1,#0xa
   \   0000E5   02....       LJMP      ??judgeInfo_2 & 0xFFFF
   \                     ??judgeInfo_12:
   \   0000E8                ; Setup parameters for call to function firstAlphaStr
   \   0000E8   EE           MOV       A,R6
   \   0000E9   FA           MOV       R2,A
   \   0000EA   EF           MOV       A,R7
   \   0000EB   FB           MOV       R3,A
   \   0000EC   12....       LCALL     `??firstAlphaStr::?relay`; Banked call to: firstAlphaStr
   \   0000EF                ; Setup parameters for call to function strcmp
   \   0000EF   7C..         MOV       R4,#cwlap & 0xff
   \   0000F1   7D..         MOV       R5,#(cwlap >> 8) & 0xff
   \   0000F3   12....       LCALL     ??Subroutine83_0 & 0xFFFF
   \                     ??CrossCallReturnLabel_159:
   \   0000F6   7004         JNZ       ??judgeInfo_13
   \   0000F8   790B         MOV       R1,#0xb
   \   0000FA   8070         SJMP      ??judgeInfo_2
   \                     ??judgeInfo_13:
   \   0000FC                ; Setup parameters for call to function firstAlphaStr
   \   0000FC   EE           MOV       A,R6
   \   0000FD   FA           MOV       R2,A
   \   0000FE   EF           MOV       A,R7
   \   0000FF   FB           MOV       R3,A
   \   000100   12....       LCALL     `??firstAlphaStr::?relay`; Banked call to: firstAlphaStr
   \   000103                ; Setup parameters for call to function strcmp
   \   000103   7C..         MOV       R4,#cifsr & 0xff
   \   000105   7D..         MOV       R5,#(cifsr >> 8) & 0xff
   \   000107   12....       LCALL     ??Subroutine83_0 & 0xFFFF
   \                     ??CrossCallReturnLabel_160:
   \   00010A   705E         JNZ       ??judgeInfo_14
   \   00010C   790C         MOV       R1,#0xc
   \   00010E   805C         SJMP      ??judgeInfo_2
   \                     ??judgeInfo_0:
   \   000110                ; Setup parameters for call to function strcmp
   \   000110   7C..         MOV       R4,#connect & 0xff
   \   000112   7D..         MOV       R5,#(connect >> 8) & 0xff
   \   000114   AA..         MOV       R2,?V0
   \   000116   AB..         MOV       R3,?V1
   \   000118   12....       LCALL     ??Subroutine83_0 & 0xFFFF
   \                     ??CrossCallReturnLabel_161:
   \   00011B   7004         JNZ       ??judgeInfo_15
   \   00011D   7911         MOV       R1,#0x11
   \   00011F   804B         SJMP      ??judgeInfo_2
   \                     ??judgeInfo_15:
   \   000121                ; Setup parameters for call to function getInfoBeforeChar
   \   000121   792C         MOV       R1,#0x2c
   \   000123   AA..         MOV       R2,?V0
   \   000125   AB..         MOV       R3,?V1
   \   000127   12....       LCALL     `??getInfoBeforeChar::?relay`; Banked call to: getInfoBeforeChar
   \   00012A                ; Setup parameters for call to function strcmp
   \   00012A   7C..         MOV       R4,#ipd & 0xff
   \   00012C   7D..         MOV       R5,#(ipd >> 8) & 0xff
   \   00012E   12....       LCALL     ??Subroutine83_0 & 0xFFFF
   \                     ??CrossCallReturnLabel_162:
   \   000131   7004         JNZ       ??judgeInfo_16
   \   000133   790D         MOV       R1,#0xd
   \   000135   8035         SJMP      ??judgeInfo_2
   \                     ??judgeInfo_16:
   \   000137                ; Setup parameters for call to function strcmp
   \   000137   7C..         MOV       R4,#sendok & 0xff
   \   000139   7D..         MOV       R5,#(sendok >> 8) & 0xff
   \   00013B   AA..         MOV       R2,?V0
   \   00013D   AB..         MOV       R3,?V1
   \   00013F   12....       LCALL     ??Subroutine83_0 & 0xFFFF
   \                     ??CrossCallReturnLabel_163:
   \   000142   7004         JNZ       ??judgeInfo_17
   \   000144   790E         MOV       R1,#0xe
   \   000146   8024         SJMP      ??judgeInfo_2
   \                     ??judgeInfo_17:
   \   000148                ; Setup parameters for call to function strcmp
   \   000148   7C..         MOV       R4,#error & 0xff
   \   00014A   7D..         MOV       R5,#(error >> 8) & 0xff
   \   00014C   AA..         MOV       R2,?V0
   \   00014E   AB..         MOV       R3,?V1
   \   000150   12....       LCALL     ??Subroutine83_0 & 0xFFFF
   \                     ??CrossCallReturnLabel_164:
   \   000153   7004         JNZ       ??judgeInfo_18
   \   000155   790F         MOV       R1,#0xf
   \   000157   8013         SJMP      ??judgeInfo_2
   \                     ??judgeInfo_18:
   \   000159                ; Setup parameters for call to function strcmp
   \   000159   7C..         MOV       R4,#arrow & 0xff
   \   00015B   7D..         MOV       R5,#(arrow >> 8) & 0xff
   \   00015D   AA..         MOV       R2,?V0
   \   00015F   AB..         MOV       R3,?V1
   \   000161   12....       LCALL     ??Subroutine83_0 & 0xFFFF
   \                     ??CrossCallReturnLabel_165:
   \   000164   7004         JNZ       ??judgeInfo_14
   \   000166   7910         MOV       R1,#0x10
   \   000168   8002         SJMP      ??judgeInfo_2
   \                     ??judgeInfo_14:
   \   00016A   79FF         MOV       R1,#-0x1
   \                     ??judgeInfo_2:
   \   00016C   02....       LJMP      ??Subroutine80_0 & 0xFFFF

   \                                 In  segment BANKED_CODE, align 1, keep-with-next
   \                     ?Subroutine36:
   \   000000   EE           MOV       A,R6
   \   000001   FA           MOV       R2,A
   \   000002   EF           MOV       A,R7
   \   000003   FB           MOV       R3,A
   \   000004                REQUIRE ??Subroutine83_0
   \   000004                ; // Fall through to label ??Subroutine83_0

   \                                 In  segment BANKED_CODE, align 1, keep-with-next
   \   __banked_func __xdata_reentrant char *substr(char *, uint8, uint8)
   \                     substr:
   \   000000                ; Saved register size: 0
   \   000000                ; Auto size: 255
   \   000000   7401         MOV       A,#0x1
   \   000002   12....       LCALL     ?ALLOC_XSTACK8
   \   000005   74D0         MOV       A,#-0x30
   \   000007   2C           ADD       A,R4
   \   000008   FA           MOV       R2,A
   \   000009   74D0         MOV       A,#-0x30
   \   00000B   29           ADD       A,R1
   \   00000C   F8           MOV       R0,A
   \   00000D   8001         SJMP      ??substr_0
   \                     ??substr_1:
   \   00000F   08           INC       R0
   \                     ??substr_0:
   \   000010   EA           MOV       A,R2
   \   000011   C3           CLR       C
   \   000012   98           SUBB      A,R0
   \   000013   50FA         JNC       ??substr_1
   \   000015   AA..         MOV       R2,?XSP + 0
   \   000017   AB..         MOV       R3,?XSP + 1
   \   000019   74FF         MOV       A,#-0x1
   \   00001B   12....       LCALL     ?DEALLOC_XSTACK8
   \   00001E   02....       LJMP      ?BRET

   \                                 In  segment BANKED_CODE, align 1, keep-with-next
   \   __banked_func __xdata_reentrant uint8 hasChar(char *, char)
   \                     hasChar:
   \   000000                REQUIRE ?V0
   \   000000                REQUIRE ?V1
   \   000000                REQUIRE ?V2
   \   000000                REQUIRE ?V3
   \   000000                REQUIRE ?V4
   \   000000                REQUIRE ?V5
   \   000000                REQUIRE ?V6
   \   000000                REQUIRE ?V7
   \   000000   74F0         MOV       A,#-0x10
   \   000002   12....       LCALL     ?BANKED_ENTER_XDATA
   \   000005                ; Saved register size: 16
   \   000005                ; Auto size: 0
   \   000005   8A..         MOV       ?V6,R2
   \   000007   8B..         MOV       ?V7,R3
   \   000009   89..         MOV       ?V3,R1
   \   00000B   8A..         MOV       ?V0,R2
   \   00000D   8B..         MOV       ?V1,R3
   \   00000F   75..00       MOV       ?V2,#0x0
   \   000012   8002         SJMP      ??hasChar_0
   \                     ??hasChar_1:
   \   000014   05..         INC       ?V2
   \                     ??hasChar_0:
   \   000016                ; Setup parameters for call to function strlen
   \   000016   12....       LCALL     ?Subroutine37 & 0xFFFF
   \                     ??CrossCallReturnLabel_168:
   \   000019   501C         JNC       ??hasChar_2
   \   00001B   A8..         MOV       R0,?V0
   \   00001D   A9..         MOV       R1,?V1
   \   00001F   8882         MOV       DPL,R0
   \   000021   8983         MOV       DPH,R1
   \   000023   A3           INC       DPTR
   \   000024   8582..       MOV       ?V0,DPL
   \   000027   8583..       MOV       ?V1,DPH
   \   00002A   8882         MOV       DPL,R0
   \   00002C   8983         MOV       DPH,R1
   \   00002E   E0           MOVX      A,@DPTR
   \   00002F   65..         XRL       A,?V3
   \   000031   70E1         JNZ       ??hasChar_1
   \   000033   7901         MOV       R1,#0x1
   \   000035   8010         SJMP      ??hasChar_3
   \                     ??hasChar_2:
   \   000037   AE..         MOV       R6,?V2
   \   000039                ; Setup parameters for call to function strlen
   \   000039   AA..         MOV       R2,?V6
   \   00003B   AB..         MOV       R3,?V7
   \   00003D   12....       LCALL     `??strlen::?relay`; Banked call to: strlen
   \   000040   EA           MOV       A,R2
   \   000041   6E           XRL       A,R6
   \   000042   4B           ORL       A,R3
   \   000043   7002         JNZ       ??hasChar_3
   \   000045   7900         MOV       R1,#0x0
   \                     ??hasChar_3:
   \   000047   80..         SJMP      ??Subroutine85_0

   \                                 In  segment BANKED_CODE, align 1, keep-with-next
   \                     ?Subroutine37:
   \   000000   AA..         MOV       R2,?V6
   \   000002   AB..         MOV       R3,?V7
   \   000004                REQUIRE ??Subroutine84_0
   \   000004                ; // Fall through to label ??Subroutine84_0

   \                                 In  segment BANKED_CODE, align 1, keep-with-next
   \                     ??Subroutine84_0:
   \   000000   12....       LCALL     ?Subroutine69 & 0xFFFF
   \                     ??CrossCallReturnLabel_172:
   \   000003   E5..         MOV       A,?V2
   \   000005   95..         SUBB      A,?V4
   \   000007   E4           CLR       A
   \   000008   95..         SUBB      A,?V5
   \   00000A   22           RET

   \                                 In  segment BANKED_CODE, align 1, keep-with-next
   \                     ??Subroutine85_0:
   \   000000   7F08         MOV       R7,#0x8
   \   000002   02....       LJMP      ?BANKED_LEAVE_XDATA

   \                                 In  segment BANKED_CODE, align 1, keep-with-next
   \   __banked_func __xdata_reentrant List *splitStr(char *)
   \                     splitStr:
   \   000000                REQUIRE ?V0
   \   000000                REQUIRE ?V1
   \   000000                REQUIRE ?V2
   \   000000                REQUIRE ?V4
   \   000000                REQUIRE ?V5
   \   000000   74F2         MOV       A,#-0xe
   \   000002   12....       LCALL     ?BANKED_ENTER_XDATA
   \   000005                ; Saved register size: 14
   \   000005                ; Auto size: 102
   \   000005   749A         MOV       A,#-0x66
   \   000007   12....       LCALL     ?ALLOC_XSTACK8
   \   00000A   EA           MOV       A,R2
   \   00000B   FE           MOV       R6,A
   \   00000C   EB           MOV       A,R3
   \   00000D   FF           MOV       R7,A
   \   00000E   8A..         MOV       ?V0,R2
   \   000010   8B..         MOV       ?V1,R3
   \   000012                ; Setup parameters for call to function hasChar
   \   000012   790A         MOV       R1,#0xa
   \   000014   12....       LCALL     `??hasChar::?relay`; Banked call to: hasChar
   \   000017   E9           MOV       A,R1
   \   000018   F5..         MOV       ?V2,A
   \   00001A                ; Setup parameters for call to function init
   \   00001A   AA..         MOV       R2,?XSP + 0
   \   00001C   AB..         MOV       R3,?XSP + 1
   \   00001E   12....       LCALL     `??init::?relay` ; Banked call to: init
   \   000021   8047         SJMP      ??splitStr_0
   \                     ??splitStr_1:
   \   000023   12....       LCALL     ?Subroutine49 & 0xFFFF
   \                     ??CrossCallReturnLabel_75:
   \   000026   C0E0         PUSH      A
   \   000028   7402         MOV       A,#0x2
   \   00002A   12....       LCALL     ?XSTACK_DISP0_8
   \   00002D   12....       LCALL     ??Subroutine88_0 & 0xFFFF
   \                     ??CrossCallReturnLabel_180:
   \   000030   D0E0         POP       A
   \   000032   F0           MOVX      @DPTR,A
   \   000033   0E           INC       R6
   \                     ??splitStr_2:
   \   000034   EE           MOV       A,R6
   \   000035   C3           CLR       C
   \   000036   95..         SUBB      A,?V2
   \   000038   EE           MOV       A,R6
   \   000039   F8           MOV       R0,A
   \   00003A   40E7         JC        ??splitStr_1
   \   00003C   7402         MOV       A,#0x2
   \   00003E   12....       LCALL     ?XSTACK_DISP0_8
   \   000041   12....       LCALL     ?Subroutine47 & 0xFFFF
   \                     ??CrossCallReturnLabel_73:
   \   000044   12....       LCALL     ?XSTACK_DISP102_8
   \   000047   AA..         MOV       R2,?XSP + 0
   \   000049   AB..         MOV       R3,?XSP + 1
   \   00004B   12....       LCALL     `??append::?relay`; Banked call to: append
   \   00004E   7401         MOV       A,#0x1
   \   000050   2E           ADD       A,R6
   \   000051   F8           MOV       R0,A
   \   000052   E5..         MOV       A,?V0
   \   000054   28           ADD       A,R0
   \   000055   F5..         MOV       ?V0,A
   \   000057   E4           CLR       A
   \   000058   35..         ADDC      A,?V1
   \   00005A   F5..         MOV       ?V1,A
   \   00005C   AE..         MOV       R6,?V0
   \   00005E   FF           MOV       R7,A
   \   00005F                ; Setup parameters for call to function hasChar
   \   00005F   790A         MOV       R1,#0xa
   \   000061   AA..         MOV       R2,?V0
   \   000063   FB           MOV       R3,A
   \   000064   12....       LCALL     `??hasChar::?relay`; Banked call to: hasChar
   \   000067   E9           MOV       A,R1
   \   000068   F5..         MOV       ?V2,A
   \                     ??splitStr_0:
   \   00006A   7401         MOV       A,#0x1
   \   00006C   65..         XRL       A,?V2
   \   00006E   7032         JNZ       ??splitStr_3
   \   000070   7402         MOV       A,#0x2
   \   000072   12....       LCALL     ?XSTACK_DISP0_8
   \   000075   E4           CLR       A
   \   000076   F0           MOVX      @DPTR,A
   \   000077   75..00       MOV       ?V2,#0x0
   \   00007A                ; Setup parameters for call to function strlen
   \   00007A   AA..         MOV       R2,?V0
   \   00007C   AB..         MOV       R3,?V1
   \   00007E   12....       LCALL     `??strlen::?relay`; Banked call to: strlen
   \   000081   EA           MOV       A,R2
   \   000082   4B           ORL       A,R3
   \   000083   7004         JNZ       ??splitStr_4
   \   000085   8017         SJMP      ??splitStr_5
   \                     ??splitStr_6:
   \   000087   05..         INC       ?V2
   \                     ??splitStr_4:
   \   000089   EE           MOV       A,R6
   \   00008A   F8           MOV       R0,A
   \   00008B   EF           MOV       A,R7
   \   00008C   8882         MOV       DPL,R0
   \   00008E   F583         MOV       DPH,A
   \   000090   A3           INC       DPTR
   \   000091   AE82         MOV       R6,DPL
   \   000093   AF83         MOV       R7,DPH
   \   000095   8882         MOV       DPL,R0
   \   000097   F583         MOV       DPH,A
   \   000099   E0           MOVX      A,@DPTR
   \   00009A   640A         XRL       A,#0xa
   \   00009C   70E9         JNZ       ??splitStr_6
   \                     ??splitStr_5:
   \   00009E   7E00         MOV       R6,#0x0
   \   0000A0   8092         SJMP      ??splitStr_2
   \                     ??splitStr_3:
   \   0000A2   75..00       MOV       ?V2,#0x0
   \   0000A5   8012         SJMP      ??splitStr_7
   \                     ??splitStr_8:
   \   0000A7   12....       LCALL     ?Subroutine49 & 0xFFFF
   \                     ??CrossCallReturnLabel_76:
   \   0000AA   C0E0         PUSH      A
   \   0000AC   7402         MOV       A,#0x2
   \   0000AE   12....       LCALL     ?XSTACK_DISP0_8
   \   0000B1   12....       LCALL     ??Subroutine88_0 & 0xFFFF
   \                     ??CrossCallReturnLabel_181:
   \   0000B4   D0E0         POP       A
   \   0000B6   F0           MOVX      @DPTR,A
   \   0000B7   05..         INC       ?V2
   \                     ??splitStr_7:
   \   0000B9                ; Setup parameters for call to function strlen
   \   0000B9   AA..         MOV       R2,?V0
   \   0000BB   AB..         MOV       R3,?V1
   \   0000BD   12....       LCALL     ??Subroutine84_0 & 0xFFFF
   \                     ??CrossCallReturnLabel_170:
   \   0000C0   A8..         MOV       R0,?V2
   \   0000C2   40E3         JC        ??splitStr_8
   \   0000C4   7402         MOV       A,#0x2
   \   0000C6   12....       LCALL     ?XSTACK_DISP0_8
   \   0000C9   12....       LCALL     ?Subroutine47 & 0xFFFF
   \                     ??CrossCallReturnLabel_74:
   \   0000CC   12....       LCALL     ?XSTACK_DISP102_8
   \   0000CF   AA..         MOV       R2,?XSP + 0
   \   0000D1   AB..         MOV       R3,?XSP + 1
   \   0000D3   12....       LCALL     `??append::?relay`; Banked call to: append
   \   0000D6   12....       LCALL     ?Subroutine30 & 0xFFFF
   \                     ??CrossCallReturnLabel_205:
   \   0000D9   7466         MOV       A,#0x66
   \   0000DB   02....       LJMP      ?Subroutine3 & 0xFFFF

   \                                 In  segment BANKED_CODE, align 1, keep-with-next
   \                     ?Subroutine49:
   \   000000   E5..         MOV       A,?V0
   \   000002   12....       LCALL     ?Subroutine78 & 0xFFFF
   \                     ??CrossCallReturnLabel_190:
   \   000005   35..         ADDC      A,?V1
   \   000007   F583         MOV       DPH,A
   \   000009   E0           MOVX      A,@DPTR
   \   00000A   22           RET

   \                                 In  segment BANKED_CODE, align 1, keep-with-next
   \                     ?Subroutine47:
   \   000000   12....       LCALL     ?Subroutine73 & 0xFFFF
   \                     ??CrossCallReturnLabel_185:
   \   000003   E4           CLR       A
   \   000004   F0           MOVX      @DPTR,A
   \   000005                ; Setup parameters for call to function append
   \   000005                ; Setup parameters for call to function append
   \   000005   7402         MOV       A,#0x2
   \   000007   22           RET

   \                                 In  segment BANKED_CODE, align 1, keep-with-next
   \                     ??Subroutine88_0:
   \   000000   12....       LCALL     ?Subroutine73 & 0xFFFF
   \                     ??CrossCallReturnLabel_186:
   \   000003   22           RET

   \                                 In  segment BANKED_CODE, align 1, keep-with-next
   \                     ?Subroutine73:
   \   000000   E582         MOV       A,DPL
   \   000002   12....       LCALL     ?Subroutine78 & 0xFFFF
   \                     ??CrossCallReturnLabel_192:
   \   000005   3583         ADDC      A,DPH
   \   000007   F583         MOV       DPH,A
   \   000009   22           RET

   \                                 In  segment BANKED_CODE, align 1, keep-with-next
   \                     ?Subroutine78:
   \   000000   28           ADD       A,R0
   \   000001   F582         MOV       DPL,A
   \   000003   E4           CLR       A
   \   000004   22           RET

   \                                 In  segment BANKED_CODE, align 1, keep-with-next
   \                     ?Subroutine3:
   \   000000   12....       LCALL     ?DEALLOC_XSTACK8
   \   000003                REQUIRE ??Subroutine90_0
   \   000003                ; // Fall through to label ??Subroutine90_0

   \                                 In  segment BANKED_CODE, align 1, keep-with-next
   \   __banked_func __xdata_reentrant uint8 judgeInfo_list(List *, uint8)
   \                     judgeInfo_list:
   \   000000                REQUIRE ?V0
   \   000000                REQUIRE ?V1
   \   000000                REQUIRE ?V2
   \   000000                REQUIRE ?V3
   \   000000                REQUIRE ?V4
   \   000000                REQUIRE ?V5
   \   000000                REQUIRE ?V6
   \   000000   74F1         MOV       A,#-0xf
   \   000002   12....       LCALL     ?BANKED_ENTER_XDATA
   \   000005                ; Saved register size: 15
   \   000005                ; Auto size: 4
   \   000005   74FC         MOV       A,#-0x4
   \   000007   12....       LCALL     ?ALLOC_XSTACK8
   \   00000A   7402         MOV       A,#0x2
   \   00000C   12....       LCALL     ?XSTACK_DISP0_8
   \   00000F   12....       LCALL     ??Subroutine82_0 & 0xFFFF
   \                     ??CrossCallReturnLabel_138:
   \   000012   89..         MOV       ?V6,R1
   \   000014                ; Setup parameters for call to function init
   \   000014   AA..         MOV       R2,?XSP + 0
   \   000016   AB..         MOV       R3,?XSP + 1
   \   000018   12....       LCALL     `??init::?relay` ; Banked call to: init
   \   00001B                ; Setup parameters for call to function get
   \   00001B   A9..         MOV       R1,?V6
   \   00001D   7402         MOV       A,#0x2
   \   00001F   12....       LCALL     ?XSTACK_DISP101_8
   \   000022   12....       LCALL     `??get::?relay`  ; Banked call to: get
   \   000025                ; Setup parameters for call to function judgeInfo
   \   000025   12....       LCALL     `??judgeInfo::?relay`; Banked call to: judgeInfo
   \   000028   E9           MOV       A,R1
   \   000029   F5..         MOV       ?V0,A
   \   00002B   7003         JNZ       $+5
   \   00002D   02....       LJMP      ??judgeInfo_list_0 & 0xFFFF
   \   000030   14           DEC       A
   \   000031   7003         JNZ       $+5
   \   000033   02....       LJMP      ??judgeInfo_list_0 & 0xFFFF
   \   000036   14           DEC       A
   \   000037   7003         JNZ       $+5
   \   000039   02....       LJMP      ??judgeInfo_list_0 & 0xFFFF
   \   00003C   14           DEC       A
   \   00003D   7003         JNZ       $+5
   \   00003F   02....       LJMP      ??judgeInfo_list_0 & 0xFFFF
   \   000042   14           DEC       A
   \   000043   7003         JNZ       $+5
   \   000045   02....       LJMP      ??judgeInfo_list_1 & 0xFFFF
   \   000048   14           DEC       A
   \   000049   7003         JNZ       $+5
   \   00004B   02....       LJMP      ??judgeInfo_list_2 & 0xFFFF
   \   00004E   14           DEC       A
   \   00004F   7003         JNZ       $+5
   \   000051   02....       LJMP      ??judgeInfo_list_3 & 0xFFFF
   \   000054   14           DEC       A
   \   000055   7003         JNZ       $+5
   \   000057   02....       LJMP      ??judgeInfo_list_4 & 0xFFFF
   \   00005A   24FE         ADD       A,#-0x2
   \   00005C   7003         JNZ       $+5
   \   00005E   02....       LJMP      ??judgeInfo_list_5 & 0xFFFF
   \   000061   14           DEC       A
   \   000062   7003         JNZ       $+5
   \   000064   02....       LJMP      ??judgeInfo_list_6 & 0xFFFF
   \   000067   14           DEC       A
   \   000068   7003         JNZ       $+5
   \   00006A   02....       LJMP      ??judgeInfo_list_7 & 0xFFFF
   \   00006D   14           DEC       A
   \   00006E   7003         JNZ       $+5
   \   000070   02....       LJMP      ??judgeInfo_list_8 & 0xFFFF
   \   000073   14           DEC       A
   \   000074   601B         JZ        ??judgeInfo_list_9
   \   000076   14           DEC       A
   \   000077   7003         JNZ       $+5
   \   000079   02....       LJMP      ??judgeInfo_list_10 & 0xFFFF
   \   00007C   14           DEC       A
   \   00007D   7003         JNZ       $+5
   \   00007F   02....       LJMP      ??judgeInfo_list_11 & 0xFFFF
   \   000082   14           DEC       A
   \   000083   7003         JNZ       $+5
   \   000085   02....       LJMP      ??judgeInfo_list_12 & 0xFFFF
   \   000088   14           DEC       A
   \   000089   7003         JNZ       $+5
   \   00008B   02....       LJMP      ??judgeInfo_list_13 & 0xFFFF
   \   00008E   02....       LJMP      ??judgeInfo_list_14 & 0xFFFF
   \                     ??judgeInfo_list_9:
   \   000091                ; Setup parameters for call to function get
   \   000091   7901         MOV       R1,#0x1
   \   000093   7402         MOV       A,#0x2
   \   000095   12....       LCALL     ?XSTACK_DISP101_8
   \   000098   12....       LCALL     `??get::?relay`  ; Banked call to: get
   \   00009B                ; Setup parameters for call to function deleteBeforeChar
   \   00009B   792C         MOV       R1,#0x2c
   \   00009D   12....       LCALL     ?Subroutine43 & 0xFFFF
   \                     ??CrossCallReturnLabel_62:
   \   0000A0                ; Setup parameters for call to function deleteBeforeChar
   \   0000A0   792C         MOV       R1,#0x2c
   \   0000A2   EE           MOV       A,R6
   \   0000A3   FA           MOV       R2,A
   \   0000A4   EF           MOV       A,R7
   \   0000A5   FB           MOV       R3,A
   \   0000A6   12....       LCALL     ?Subroutine68 & 0xFFFF
   \                     ??CrossCallReturnLabel_105:
   \   0000A9                ; Setup parameters for call to function getInfoBeforeChar
   \   0000A9   793A         MOV       R1,#0x3a
   \   0000AB   12....       LCALL     ?Subroutine44 & 0xFFFF
   \                     ??CrossCallReturnLabel_64:
   \   0000AE                ; Setup parameters for call to function getInfoBeforeChar
   \   0000AE   793A         MOV       R1,#0x3a
   \   0000B0   EE           MOV       A,R6
   \   0000B1   FA           MOV       R2,A
   \   0000B2   EF           MOV       A,R7
   \   0000B3   FB           MOV       R3,A
   \   0000B4   12....       LCALL     `??getInfoBeforeChar::?relay`; Banked call to: getInfoBeforeChar
   \   0000B7   8A..         MOV       ?V2,R2
   \   0000B9   8B..         MOV       ?V3,R3
   \   0000BB                ; Setup parameters for call to function deleteBeforeChar
   \   0000BB   793A         MOV       R1,#0x3a
   \   0000BD   EE           MOV       A,R6
   \   0000BE   FA           MOV       R2,A
   \   0000BF   EF           MOV       A,R7
   \   0000C0   FB           MOV       R3,A
   \   0000C1   12....       LCALL     `??deleteBeforeChar::?relay`; Banked call to: deleteBeforeChar
   \   0000C4                ; Setup parameters for call to function getInfoBeforeCharR
   \   0000C4   AC..         MOV       R4,?V2
   \   0000C6   AD..         MOV       R5,?V3
   \   0000C8   12....       LCALL     `??getInfoBeforeCharR::?relay`; Banked call to: getInfoBeforeCharR
   \   0000CB                ; Setup parameters for call to function getInfoBeforeCharR
   \   0000CB   AC..         MOV       R4,?V2
   \   0000CD   AD..         MOV       R5,?V3
   \   0000CF   12....       LCALL     `??getInfoBeforeCharR::?relay`; Banked call to: getInfoBeforeCharR
   \   0000D2   8A..         MOV       ?V2,R2
   \   0000D4   8B..         MOV       ?V3,R3
   \   0000D6   AC..         MOV       R4,?V2
   \   0000D8   AD..         MOV       R5,?V3
   \   0000DA                ; Setup parameters for call to function append
   \   0000DA   AA..         MOV       R2,?XSP + 0
   \   0000DC   AB..         MOV       R3,?XSP + 1
   \   0000DE   12....       LCALL     `??append::?relay`; Banked call to: append
   \   0000E1                ; Setup parameters for call to function get
   \   0000E1   7902         MOV       R1,#0x2
   \   0000E3   AA..         MOV       R2,?XSP + 0
   \   0000E5   AB..         MOV       R3,?XSP + 1
   \   0000E7   12....       LCALL     `??get::?relay`  ; Banked call to: get
   \   0000EA                ; Setup parameters for call to function strlen
   \   0000EA   12....       LCALL     `??strlen::?relay`; Banked call to: strlen
   \   0000ED   8A..         MOV       ?V2,R2
   \   0000EF                ; Setup parameters for call to function get
   \   0000EF   7902         MOV       R1,#0x2
   \   0000F1   AA..         MOV       R2,?XSP + 0
   \   0000F3   AB..         MOV       R3,?XSP + 1
   \   0000F5   12....       LCALL     `??get::?relay`  ; Banked call to: get
   \   0000F8                ; Setup parameters for call to function SendData
   \   0000F8   E5..         MOV       A,?V2
   \   0000FA   F5..         MOV       ?V1,A
   \   0000FC   78..         MOV       R0,#?V1
   \   0000FE   12....       LCALL     ?PUSH_XSTACK_I_ONE
   \   000101   75..01       MOV       ?V1,#0x1
   \   000104   78..         MOV       R0,#?V1
   \   000106   12....       LCALL     ?PUSH_XSTACK_I_ONE
   \   000109   7C00         MOV       R4,#0x0
   \   00010B   7D00         MOV       R5,#0x0
   \   00010D   12....       LCALL     ?Subroutine54 & 0xFFFF
   \                     ??CrossCallReturnLabel_173:
   \   000110   12....       LCALL     ?DEALLOC_XSTACK8
   \   000113   02....       LJMP      ??judgeInfo_list_14 & 0xFFFF
   \                     ??judgeInfo_list_0:
   \   000116                ; Setup parameters for call to function OK_ERROR
   \   000116                ; Setup parameters for call to function OK_ERROR
   \   000116   7402         MOV       A,#0x2
   \   000118   12....       LCALL     ?XSTACK_DISP0_8
   \   00011B   12....       LCALL     ?Subroutine19 & 0xFFFF
   \                     ??CrossCallReturnLabel_22:
   \   00011E   7003         JNZ       $+5
   \   000120   02....       LJMP      ??judgeInfo_list_11 & 0xFFFF
   \   000123   14           DEC       A
   \   000124   6043         JZ        ??judgeInfo_list_15
   \   000126   02....       LJMP      ??judgeInfo_list_14 & 0xFFFF
   \                     ??judgeInfo_list_1:
   \   000129                ; Setup parameters for call to function OK_ERROR
   \   000129   7402         MOV       A,#0x2
   \   00012B   12....       LCALL     ?XSTACK_DISP0_8
   \   00012E   12....       LCALL     ?Subroutine19 & 0xFFFF
   \                     ??CrossCallReturnLabel_23:
   \   000131   7003         JNZ       $+5
   \   000133   02....       LJMP      ??judgeInfo_list_11 & 0xFFFF
   \   000136   14           DEC       A
   \   000137   6003         JZ        $+5
   \   000139   02....       LJMP      ??judgeInfo_list_14 & 0xFFFF
   \   00013C                ; Setup parameters for call to function append
   \   00013C   7C..         MOV       R4,#`?<Constant "OK">` & 0xff
   \   00013E   7D..         MOV       R5,#(`?<Constant "OK">` >> 8) & 0xff
   \   000140   AA..         MOV       R2,?XSP + 0
   \   000142   AB..         MOV       R3,?XSP + 1
   \   000144   12....       LCALL     `??append::?relay`; Banked call to: append
   \   000147                ; Setup parameters for call to function get
   \   000147   7901         MOV       R1,#0x1
   \   000149   7402         MOV       A,#0x2
   \   00014B   12....       LCALL     ?XSTACK_DISP101_8
   \   00014E   12....       LCALL     `??get::?relay`  ; Banked call to: get
   \   000151                ; Setup parameters for call to function deleteBeforeChar
   \   000151   793A         MOV       R1,#0x3a
   \   000153   02....       LJMP      ??judgeInfo_list_16 & 0xFFFF
   \                     ??judgeInfo_list_2:
   \   000156                ; Setup parameters for call to function OK_ERROR
   \   000156   7402         MOV       A,#0x2
   \   000158   12....       LCALL     ?XSTACK_DISP0_8
   \   00015B   12....       LCALL     ?Subroutine19 & 0xFFFF
   \                     ??CrossCallReturnLabel_24:
   \   00015E   7003         JNZ       $+5
   \   000160   02....       LJMP      ??judgeInfo_list_11 & 0xFFFF
   \   000163   14           DEC       A
   \   000164   6003         JZ        $+5
   \   000166   02....       LJMP      ??judgeInfo_list_14 & 0xFFFF
   \                     ??judgeInfo_list_15:
   \   000169                ; Setup parameters for call to function append
   \   000169   7C..         MOV       R4,#`?<Constant "OK">` & 0xff
   \   00016B   7D..         MOV       R5,#(`?<Constant "OK">` >> 8) & 0xff
   \   00016D   02....       LJMP      ??judgeInfo_list_17 & 0xFFFF
   \                     ??judgeInfo_list_3:
   \   000170                ; Setup parameters for call to function OK_ERROR
   \   000170   7402         MOV       A,#0x2
   \   000172   12....       LCALL     ?XSTACK_DISP0_8
   \   000175   12....       LCALL     ?Subroutine19 & 0xFFFF
   \                     ??CrossCallReturnLabel_25:
   \   000178   7003         JNZ       $+5
   \   00017A   02....       LJMP      ??judgeInfo_list_11 & 0xFFFF
   \   00017D   14           DEC       A
   \   00017E   6003         JZ        $+5
   \   000180   02....       LJMP      ??judgeInfo_list_14 & 0xFFFF
   \   000183                ; Setup parameters for call to function append
   \   000183   12....       LCALL     ?Subroutine53 & 0xFFFF
   \                     ??CrossCallReturnLabel_177:
   \   000186   12....       LCALL     ?XSTACK_DISP101_8
   \   000189   12....       LCALL     ?Subroutine40 & 0xFFFF
   \                     ??CrossCallReturnLabel_56:
   \   00018C   7076         JNZ       ??judgeInfo_list_18
   \   00018E                ; Setup parameters for call to function getInfoBeforeChar
   \   00018E                ; Setup parameters for call to function getInfoBeforeChar
   \   00018E   7920         MOV       R1,#0x20
   \   000190   EE           MOV       A,R6
   \   000191   FA           MOV       R2,A
   \   000192   EF           MOV       A,R7
   \   000193   FB           MOV       R3,A
   \   000194   12....       LCALL     `??getInfoBeforeChar::?relay`; Banked call to: getInfoBeforeChar
   \   000197   02....       LJMP      ??judgeInfo_list_19 & 0xFFFF
   \                     ??judgeInfo_list_4:
   \   00019A                ; Setup parameters for call to function OK_ERROR
   \   00019A   7402         MOV       A,#0x2
   \   00019C   12....       LCALL     ?XSTACK_DISP0_8
   \   00019F   12....       LCALL     ?Subroutine19 & 0xFFFF
   \                     ??CrossCallReturnLabel_26:
   \   0001A2   7003         JNZ       $+5
   \   0001A4   02....       LJMP      ??judgeInfo_list_11 & 0xFFFF
   \   0001A7   14           DEC       A
   \   0001A8   6003         JZ        $+5
   \   0001AA   02....       LJMP      ??judgeInfo_list_14 & 0xFFFF
   \   0001AD                ; Setup parameters for call to function append
   \   0001AD   12....       LCALL     ?Subroutine53 & 0xFFFF
   \                     ??CrossCallReturnLabel_178:
   \   0001B0   12....       LCALL     ?XSTACK_DISP101_8
   \   0001B3   12....       LCALL     `??get::?relay`  ; Banked call to: get
   \   0001B6                ; Setup parameters for call to function deleteBeforeChar
   \   0001B6   793D         MOV       R1,#0x3d
   \   0001B8   12....       LCALL     ?Subroutine43 & 0xFFFF
   \                     ??CrossCallReturnLabel_63:
   \   0001BB                ; Setup parameters for call to function deleteBeforeChar
   \   0001BB   7922         MOV       R1,#0x22
   \   0001BD   EE           MOV       A,R6
   \   0001BE   FA           MOV       R2,A
   \   0001BF   EF           MOV       A,R7
   \   0001C0   FB           MOV       R3,A
   \   0001C1   12....       LCALL     ?Subroutine46 & 0xFFFF
   \                     ??CrossCallReturnLabel_71:
   \   0001C4   12....       LCALL     ?Subroutine44 & 0xFFFF
   \                     ??CrossCallReturnLabel_65:
   \   0001C7                ; Setup parameters for call to function deleteBeforeChar
   \   0001C7   7922         MOV       R1,#0x22
   \   0001C9   EE           MOV       A,R6
   \   0001CA   FA           MOV       R2,A
   \   0001CB   EF           MOV       A,R7
   \   0001CC   FB           MOV       R3,A
   \   0001CD   12....       LCALL     `??deleteBeforeChar::?relay`; Banked call to: deleteBeforeChar
   \   0001D0                ; Setup parameters for call to function deleteBeforeChar
   \   0001D0   7922         MOV       R1,#0x22
   \   0001D2   12....       LCALL     ?Subroutine46 & 0xFFFF
   \                     ??CrossCallReturnLabel_72:
   \   0001D5   8033         SJMP      ??judgeInfo_list_20
   \                     ??judgeInfo_list_5:
   \   0001D7                ; Setup parameters for call to function listSize
   \   0001D7   7402         MOV       A,#0x2
   \   0001D9   12....       LCALL     ?XSTACK_DISP101_8
   \   0001DC   12....       LCALL     `??listSize::?relay`; Banked call to: listSize
   \   0001DF   E9           MOV       A,R1
   \   0001E0   F8           MOV       R0,A
   \   0001E1                ; Setup parameters for call to function get
   \   0001E1   19           DEC       R1
   \   0001E2   7402         MOV       A,#0x2
   \   0001E4   12....       LCALL     ?XSTACK_DISP101_8
   \   0001E7   12....       LCALL     `??get::?relay`  ; Banked call to: get
   \   0001EA                ; Setup parameters for call to function hasChar
   \   0001EA   793E         MOV       R1,#0x3e
   \   0001EC   12....       LCALL     `??hasChar::?relay`; Banked call to: hasChar
   \   0001EF   E9           MOV       A,R1
   \   0001F0   7003         JNZ       $+5
   \   0001F2   02....       LJMP      ??judgeInfo_list_14 & 0xFFFF
   \   0001F5                ; Setup parameters for call to function append
   \   0001F5   7C..         MOV       R4,#`?<Constant ">">` & 0xff
   \   0001F7   7D..         MOV       R5,#(`?<Constant ">">` >> 8) & 0xff
   \   0001F9   12....       LCALL     ??Subroutine87_0 & 0xFFFF
   \                     ??CrossCallReturnLabel_179:
   \   0001FC   12....       LCALL     ?XSTACK_DISP101_8
   \   0001FF   12....       LCALL     ?Subroutine40 & 0xFFFF
   \                     ??CrossCallReturnLabel_57:
   \   000202   600E         JZ        ??judgeInfo_list_21
   \   000204                ; Setup parameters for call to function getInfoBeforeChar
   \                     ??judgeInfo_list_18:
   \   000204   792C         MOV       R1,#0x2c
   \   000206   EE           MOV       A,R6
   \   000207   FA           MOV       R2,A
   \   000208   EF           MOV       A,R7
   \   000209   FB           MOV       R3,A
   \                     ??judgeInfo_list_20:
   \   00020A   12....       LCALL     ?Subroutine44 & 0xFFFF
   \                     ??CrossCallReturnLabel_66:
   \   00020D                ; Setup parameters for call to function deleteBeforeChar
   \   00020D   792C         MOV       R1,#0x2c
   \   00020F   02....       LJMP      ??judgeInfo_list_22 & 0xFFFF
   \                     ??judgeInfo_list_21:
   \   000212                ; Setup parameters for call to function append
   \   000212   02....       LJMP      ??judgeInfo_list_23 & 0xFFFF
   \                     ??judgeInfo_list_10:
   \   000215                ; Setup parameters for call to function append
   \   000215   7C..         MOV       R4,#`?<Constant "SENDOK">` & 0xff
   \   000217   7D..         MOV       R5,#(`?<Constant "SENDOK">` >> 8) & 0xff
   \   000219   02....       LJMP      ??judgeInfo_list_17 & 0xFFFF
   \                     ??judgeInfo_list_12:
   \   00021C                ; Setup parameters for call to function append
   \   00021C   7C..         MOV       R4,#`?<Constant ">">` & 0xff
   \   00021E   7D..         MOV       R5,#(`?<Constant ">">` >> 8) & 0xff
   \   000220   02....       LJMP      ??judgeInfo_list_17 & 0xFFFF
   \                     ??judgeInfo_list_6:
   \   000223                ; Setup parameters for call to function OK_ERROR
   \   000223   7402         MOV       A,#0x2
   \   000225   12....       LCALL     ?XSTACK_DISP0_8
   \   000228   12....       LCALL     ?Subroutine19 & 0xFFFF
   \                     ??CrossCallReturnLabel_27:
   \   00022B   7003         JNZ       $+5
   \   00022D   02....       LJMP      ??judgeInfo_list_11 & 0xFFFF
   \   000230   14           DEC       A
   \   000231   6003         JZ        $+5
   \   000233   02....       LJMP      ??judgeInfo_list_14 & 0xFFFF
   \   000236                ; Setup parameters for call to function append
   \   000236   7C..         MOV       R4,#`?<Constant "OK">` & 0xff
   \   000238   7D..         MOV       R5,#(`?<Constant "OK">` >> 8) & 0xff
   \   00023A   AA..         MOV       R2,?XSP + 0
   \   00023C   AB..         MOV       R3,?XSP + 1
   \   00023E   12....       LCALL     `??append::?relay`; Banked call to: append
   \   000241   75..01       MOV       ?V1,#0x1
   \   000244   8011         SJMP      ??judgeInfo_list_24
   \                     ??judgeInfo_list_25:
   \   000246                ; Setup parameters for call to function get
   \   000246   A9..         MOV       R1,?V1
   \   000248   7402         MOV       A,#0x2
   \   00024A   12....       LCALL     ?XSTACK_DISP101_8
   \   00024D   12....       LCALL     `??get::?relay`  ; Banked call to: get
   \   000250                ; Setup parameters for call to function getInfoBeforeChar
   \   000250   792C         MOV       R1,#0x2c
   \   000252   12....       LCALL     ?Subroutine44 & 0xFFFF
   \                     ??CrossCallReturnLabel_67:
   \   000255   05..         INC       ?V1
   \                     ??judgeInfo_list_24:
   \   000257                ; Setup parameters for call to function listSize
   \   000257   7402         MOV       A,#0x2
   \   000259   12....       LCALL     ?XSTACK_DISP101_8
   \   00025C   12....       LCALL     ?Subroutine39 & 0xFFFF
   \                     ??CrossCallReturnLabel_54:
   \   00025F   40E5         JC        ??judgeInfo_list_25
   \   000261                ; Setup parameters for call to function listSize
   \   000261   AA..         MOV       R2,?XSP + 0
   \   000263   AB..         MOV       R3,?XSP + 1
   \   000265   12....       LCALL     `??listSize::?relay`; Banked call to: listSize
   \   000268   02....       LJMP      ??judgeInfo_list_14 & 0xFFFF
   \                     ??judgeInfo_list_7:
   \   00026B                ; Setup parameters for call to function OK_ERROR
   \   00026B   7402         MOV       A,#0x2
   \   00026D   12....       LCALL     ?XSTACK_DISP0_8
   \   000270   12....       LCALL     ?Subroutine19 & 0xFFFF
   \                     ??CrossCallReturnLabel_28:
   \   000273   604D         JZ        ??judgeInfo_list_11
   \   000275   14           DEC       A
   \   000276   6003         JZ        $+5
   \   000278   02....       LJMP      ??judgeInfo_list_14 & 0xFFFF
   \   00027B                ; Setup parameters for call to function append
   \   00027B   7C..         MOV       R4,#`?<Constant "OK">` & 0xff
   \   00027D   7D..         MOV       R5,#(`?<Constant "OK">` >> 8) & 0xff
   \   00027F   AA..         MOV       R2,?XSP + 0
   \   000281   AB..         MOV       R3,?XSP + 1
   \   000283   12....       LCALL     `??append::?relay`; Banked call to: append
   \   000286   75..01       MOV       ?V1,#0x1
   \                     ??judgeInfo_list_26:
   \   000289                ; Setup parameters for call to function listSize
   \   000289   7402         MOV       A,#0x2
   \   00028B   12....       LCALL     ?XSTACK_DISP101_8
   \   00028E   12....       LCALL     ?Subroutine39 & 0xFFFF
   \                     ??CrossCallReturnLabel_55:
   \   000291   4003         JC        $+5
   \   000293   02....       LJMP      ??judgeInfo_list_14 & 0xFFFF
   \   000296                ; Setup parameters for call to function get
   \   000296   A9..         MOV       R1,?V1
   \   000298   7402         MOV       A,#0x2
   \   00029A   12....       LCALL     ?XSTACK_DISP101_8
   \   00029D   12....       LCALL     `??get::?relay`  ; Banked call to: get
   \   0002A0   8A..         MOV       ?V2,R2
   \   0002A2   8B..         MOV       ?V3,R3
   \   0002A4   AC..         MOV       R4,?V2
   \   0002A6   AD..         MOV       R5,?V3
   \   0002A8                ; Setup parameters for call to function append
   \   0002A8   AA..         MOV       R2,?XSP + 0
   \   0002AA   AB..         MOV       R3,?XSP + 1
   \   0002AC   12....       LCALL     `??append::?relay`; Banked call to: append
   \   0002AF   05..         INC       ?V1
   \   0002B1   80D6         SJMP      ??judgeInfo_list_26
   \                     ??judgeInfo_list_8:
   \   0002B3                ; Setup parameters for call to function OK_ERROR
   \   0002B3   7402         MOV       A,#0x2
   \   0002B5   12....       LCALL     ?XSTACK_DISP0_8
   \   0002B8   12....       LCALL     ?Subroutine19 & 0xFFFF
   \                     ??CrossCallReturnLabel_29:
   \   0002BB   6005         JZ        ??judgeInfo_list_11
   \   0002BD   14           DEC       A
   \   0002BE   6008         JZ        ??judgeInfo_list_27
   \   0002C0   8058         SJMP      ??judgeInfo_list_14
   \                     ??judgeInfo_list_11:
   \   0002C2                ; Setup parameters for call to function append
   \   0002C2   7C..         MOV       R4,#`?<Constant "ERROR">` & 0xff
   \   0002C4   7D..         MOV       R5,#(`?<Constant "ERROR">` >> 8) & 0xff
   \   0002C6   803C         SJMP      ??judgeInfo_list_17
   \                     ??judgeInfo_list_27:
   \   0002C8                ; Setup parameters for call to function append
   \   0002C8   7C..         MOV       R4,#`?<Constant "OK">` & 0xff
   \   0002CA   7D..         MOV       R5,#(`?<Constant "OK">` >> 8) & 0xff
   \   0002CC   AA..         MOV       R2,?XSP + 0
   \   0002CE   AB..         MOV       R3,?XSP + 1
   \   0002D0   12....       LCALL     `??append::?relay`; Banked call to: append
   \   0002D3                ; Setup parameters for call to function get
   \   0002D3   7901         MOV       R1,#0x1
   \   0002D5   7402         MOV       A,#0x2
   \   0002D7   12....       LCALL     ?XSTACK_DISP101_8
   \   0002DA   12....       LCALL     `??get::?relay`  ; Banked call to: get
   \   0002DD   8A..         MOV       ?V2,R2
   \   0002DF   8B..         MOV       ?V3,R3
   \   0002E1   AE..         MOV       R6,?V2
   \   0002E3   AF..         MOV       R7,?V3
   \   0002E5                ; Setup parameters for call to function hasChar
   \   0002E5   793A         MOV       R1,#0x3a
   \   0002E7   12....       LCALL     `??hasChar::?relay`; Banked call to: hasChar
   \   0002EA   E9           MOV       A,R1
   \   0002EB   6013         JZ        ??judgeInfo_list_23
   \   0002ED                ; Setup parameters for call to function deleteBeforeChar
   \   0002ED   793A         MOV       R1,#0x3a
   \                     ??judgeInfo_list_22:
   \   0002EF   EE           MOV       A,R6
   \   0002F0   FA           MOV       R2,A
   \   0002F1   EF           MOV       A,R7
   \   0002F2   FB           MOV       R3,A
   \                     ??judgeInfo_list_16:
   \   0002F3   12....       LCALL     `??deleteBeforeChar::?relay`; Banked call to: deleteBeforeChar
   \                     ??judgeInfo_list_19:
   \   0002F6   8A..         MOV       ?V2,R2
   \   0002F8   8B..         MOV       ?V3,R3
   \   0002FA                ; Setup parameters for call to function append
   \   0002FA   AC..         MOV       R4,?V2
   \   0002FC   AD..         MOV       R5,?V3
   \   0002FE   8004         SJMP      ??judgeInfo_list_17
   \                     ??judgeInfo_list_23:
   \   000300                ; Setup parameters for call to function append
   \   000300   EE           MOV       A,R6
   \   000301   FC           MOV       R4,A
   \   000302   EF           MOV       A,R7
   \   000303   FD           MOV       R5,A
   \                     ??judgeInfo_list_17:
   \   000304   AA..         MOV       R2,?XSP + 0
   \   000306   AB..         MOV       R3,?XSP + 1
   \   000308   12....       LCALL     `??append::?relay`; Banked call to: append
   \   00030B   800D         SJMP      ??judgeInfo_list_14
   \                     ??judgeInfo_list_13:
   \   00030D                ; Setup parameters for call to function judgeInfo_list
   \   00030D   7901         MOV       R1,#0x1
   \   00030F   7402         MOV       A,#0x2
   \   000311   12....       LCALL     ?XSTACK_DISP0_8
   \   000314   12....       LCALL     ?Subroutine29 & 0xFFFF
   \                     ??CrossCallReturnLabel_44:
   \   000317   E9           MOV       A,R1
   \   000318   F5..         MOV       ?V0,A
   \                     ??judgeInfo_list_14:
   \   00031A   A9..         MOV       R1,?V0
   \   00031C   7404         MOV       A,#0x4
   \   00031E   02....       LJMP      ?Subroutine4 & 0xFFFF

   \                                 In  segment BANKED_CODE, align 1, keep-with-next
   \                     ?Subroutine54:
   \   000000   7901         MOV       R1,#0x1
   \   000002                REQUIRE ??Subroutine86_0
   \   000002                ; // Fall through to label ??Subroutine86_0

   \                                 In  segment BANKED_CODE, align 1, keep-with-next
   \                     ??Subroutine86_0:
   \   000000   12....       LCALL     `??SendData::?relay`; Banked call to: SendData
   \   000003   7402         MOV       A,#0x2
   \   000005   22           RET

   \                                 In  segment BANKED_CODE, align 1, keep-with-next
   \                     ?Subroutine53:
   \   000000   7C..         MOV       R4,#`?<Constant "OK">` & 0xff
   \   000002   7D..         MOV       R5,#(`?<Constant "OK">` >> 8) & 0xff
   \   000004                REQUIRE ??Subroutine87_0
   \   000004                ; // Fall through to label ??Subroutine87_0

   \                                 In  segment BANKED_CODE, align 1, keep-with-next
   \                     ??Subroutine87_0:
   \   000000   AA..         MOV       R2,?XSP + 0
   \   000002   AB..         MOV       R3,?XSP + 1
   \   000004   12....       LCALL     `??append::?relay`; Banked call to: append
   \   000007                ; Setup parameters for call to function get
   \   000007                ; Setup parameters for call to function get
   \   000007                ; Setup parameters for call to function get
   \   000007   7900         MOV       R1,#0x0
   \   000009   7402         MOV       A,#0x2
   \   00000B   22           RET

   \                                 In  segment BANKED_CODE, align 1, keep-with-next
   \                     ?Subroutine46:
   \   000000   12....       LCALL     ?Subroutine68 & 0xFFFF
   \                     ??CrossCallReturnLabel_106:
   \   000003                ; Setup parameters for call to function getInfoBeforeChar
   \   000003                ; Setup parameters for call to function getInfoBeforeChar
   \   000003   7922         MOV       R1,#0x22
   \   000005   22           RET

   \                                 In  segment BANKED_CODE, align 1, keep-with-next
   \                     ?Subroutine68:
   \   000000   12....       LCALL     ?Subroutine77 & 0xFFFF
   \                     ??CrossCallReturnLabel_123:
   \   000003   22           RET

   \                                 In  segment BANKED_CODE, align 1, keep-with-next
   \                     ?Subroutine77:
   \   000000   12....       LCALL     `??deleteBeforeChar::?relay`; Banked call to: deleteBeforeChar
   \   000003   8A..         MOV       ?V2,R2
   \   000005   8B..         MOV       ?V3,R3
   \   000007   AE..         MOV       R6,?V2
   \   000009   AF..         MOV       R7,?V3
   \   00000B   22           RET

   \                                 In  segment BANKED_CODE, align 1, keep-with-next
   \                     ?Subroutine44:
   \   000000   12....       LCALL     ?Subroutine66 & 0xFFFF
   \                     ??CrossCallReturnLabel_101:
   \   000003   22           RET

   \                                 In  segment BANKED_CODE, align 1, keep-with-next
   \                     ?Subroutine43:
   \   000000   12....       LCALL     ?Subroutine67 & 0xFFFF
   \                     ??CrossCallReturnLabel_103:
   \   000003   12....       LCALL     ?Subroutine66 & 0xFFFF
   \                     ??CrossCallReturnLabel_102:
   \   000006   22           RET

   \                                 In  segment BANKED_CODE, align 1, keep-with-next
   \                     ?Subroutine66:
   \   000000   12....       LCALL     `??getInfoBeforeChar::?relay`; Banked call to: getInfoBeforeChar
   \   000003   8A..         MOV       ?V2,R2
   \   000005   8B..         MOV       ?V3,R3
   \   000007   AC..         MOV       R4,?V2
   \   000009   AD..         MOV       R5,?V3
   \   00000B                ; Setup parameters for call to function append
   \   00000B                ; Setup parameters for call to function append
   \   00000B                ; Setup parameters for call to function append
   \   00000B                ; Setup parameters for call to function append
   \   00000B                ; Setup parameters for call to function append
   \   00000B                ; Setup parameters for call to function append
   \   00000B   AA..         MOV       R2,?XSP + 0
   \   00000D   AB..         MOV       R3,?XSP + 1
   \   00000F   12....       LCALL     `??append::?relay`; Banked call to: append
   \   000012   22           RET

   \                                 In  segment BANKED_CODE, align 1, keep-with-next
   \                     ?Subroutine40:
   \   000000   12....       LCALL     `??get::?relay`  ; Banked call to: get
   \   000003                ; Setup parameters for call to function deleteBeforeChar
   \   000003                ; Setup parameters for call to function deleteBeforeChar
   \   000003   793D         MOV       R1,#0x3d
   \   000005   12....       LCALL     ?Subroutine67 & 0xFFFF
   \                     ??CrossCallReturnLabel_104:
   \   000008   12....       LCALL     `??hasChar::?relay`; Banked call to: hasChar
   \   00000B   E9           MOV       A,R1
   \   00000C   22           RET

   \                                 In  segment BANKED_CODE, align 1, keep-with-next
   \                     ?Subroutine67:
   \   000000   12....       LCALL     ?Subroutine77 & 0xFFFF
   \                     ??CrossCallReturnLabel_124:
   \   000003                ; Setup parameters for call to function getInfoBeforeChar
   \   000003                ; Setup parameters for call to function getInfoBeforeChar
   \   000003                ; Setup parameters for call to function hasChar
   \   000003                ; Setup parameters for call to function hasChar
   \   000003   792C         MOV       R1,#0x2c
   \   000005   22           RET

   \                                 In  segment BANKED_CODE, align 1, keep-with-next
   \                     ?Subroutine39:
   \   000000   12....       LCALL     `??listSize::?relay`; Banked call to: listSize
   \   000003   E9           MOV       A,R1
   \   000004   24FF         ADD       A,#-0x1
   \   000006   F8           MOV       R0,A
   \   000007   E4           CLR       A
   \   000008   34FF         ADDC      A,#-0x1
   \   00000A   F9           MOV       R1,A
   \   00000B   C3           CLR       C
   \   00000C   E5..         MOV       A,?V1
   \   00000E   98           SUBB      A,R0
   \   00000F   E4           CLR       A
   \   000010   99           SUBB      A,R1
   \   000011   A2D2         MOV       C,0xD0 /* PSW */.2
   \   000013   65D0         XRL       A,PSW
   \   000015   33           RLC       A
   \   000016   22           RET

   \                                 In  segment BANKED_CODE, align 1, keep-with-next
   \                     ?Subroutine19:
   \   000000   12....       LCALL     ?Subroutine65 & 0xFFFF
   \                     ??CrossCallReturnLabel_206:
   \   000003   12....       LCALL     `??OK_ERROR::?relay`; Banked call to: OK_ERROR
   \   000006   E9           MOV       A,R1
   \   000007   22           RET

   \                                 In  segment BANKED_CODE, align 1, keep-with-next
   \   __banked_func __xdata_reentrant char *getInfoBeforeChar(char *, char)
   \                     getInfoBeforeChar:
   \   000000                REQUIRE ?V0
   \   000000                REQUIRE ?V1
   \   000000                REQUIRE ?V2
   \   000000                REQUIRE ?V3
   \   000000                REQUIRE ?V4
   \   000000                REQUIRE ?V5
   \   000000                REQUIRE ?V6
   \   000000   74F1         MOV       A,#-0xf
   \   000002   12....       LCALL     ?BANKED_ENTER_XDATA
   \   000005                ; Saved register size: 15
   \   000005                ; Auto size: 255
   \   000005   7401         MOV       A,#0x1
   \   000007   12....       LCALL     ?ALLOC_XSTACK8
   \   00000A   8A..         MOV       ?V4,R2
   \   00000C   8B..         MOV       ?V5,R3
   \   00000E   89..         MOV       ?V6,R1
   \   000010   75..00       MOV       ?V0,#0x0
   \   000013   90....       MOV       DPTR,#`?<Constant "">_1`
   \   000016   AC..         MOV       R4,?XSP + 0
   \   000018   AD..         MOV       R5,?XSP + 1
   \   00001A   74FF         MOV       A,#-0x1
   \   00001C   12....       LCALL     ?MOVE_LONG8_XDATA_XDATA
   \   00001F   75..00       MOV       ?V1,#0x0
   \   000022   800D         SJMP      ??getInfoBeforeChar_0
   \                     ??getInfoBeforeChar_1:
   \   000024   E0           MOVX      A,@DPTR
   \   000025   C0E0         PUSH      A
   \   000027   12....       LCALL     ?Subroutine48 & 0xFFFF
   \                     ??CrossCallReturnLabel_182:
   \   00002A   D0E0         POP       A
   \   00002C   F0           MOVX      @DPTR,A
   \   00002D   05..         INC       ?V0
   \   00002F   05..         INC       ?V1
   \                     ??getInfoBeforeChar_0:
   \   000031                ; Setup parameters for call to function strlen
   \   000031   12....       LCALL     ?Subroutine41 & 0xFFFF
   \                     ??CrossCallReturnLabel_58:
   \   000034   5007         JNC       ??getInfoBeforeChar_2
   \   000036   12....       LCALL     ?Subroutine45 & 0xFFFF
   \                     ??CrossCallReturnLabel_68:
   \   000039   65..         XRL       A,?V6
   \   00003B   70E7         JNZ       ??getInfoBeforeChar_1
   \                     ??getInfoBeforeChar_2:
   \   00003D   AA..         MOV       R2,?XSP + 0
   \   00003F   AB..         MOV       R3,?XSP + 1
   \   000041   74FF         MOV       A,#-0x1
   \   000043   02....       LJMP      ?Subroutine4 & 0xFFFF

   \                                 In  segment BANKED_CODE, align 1, keep-with-next
   \                     ?Subroutine48:
   \   000000   A8..         MOV       R0,?V0
   \   000002   85..82       MOV       DPL,?XSP + 0
   \   000005   85..83       MOV       DPH,?XSP + 1
   \   000008                REQUIRE ??Subroutine88_0
   \   000008                ; // Fall through to label ??Subroutine88_0

   \                                 In  segment BANKED_CODE, align 1, keep-with-next
   \                     ?Subroutine45:
   \   000000   A8..         MOV       R0,?V1
   \   000002   E5..         MOV       A,?V4
   \   000004   12....       LCALL     ?Subroutine78 & 0xFFFF
   \                     ??CrossCallReturnLabel_189:
   \   000007   35..         ADDC      A,?V5
   \   000009   F583         MOV       DPH,A
   \   00000B   E0           MOVX      A,@DPTR
   \   00000C   22           RET

   \                                 In  segment BANKED_CODE, align 1, keep-with-next
   \                     ?Subroutine41:
   \   000000   AA..         MOV       R2,?V4
   \   000002   AB..         MOV       R3,?V5
   \   000004   12....       LCALL     ?Subroutine70 & 0xFFFF
   \                     ??CrossCallReturnLabel_108:
   \   000007   E5..         MOV       A,?V1
   \   000009   95..         SUBB      A,?V2
   \   00000B   E4           CLR       A
   \   00000C   95..         SUBB      A,?V3
   \   00000E   22           RET

   \                                 In  segment BANKED_CODE, align 1, keep-with-next
   \                     ?Subroutine70:
   \   000000   12....       LCALL     `??strlen::?relay`; Banked call to: strlen
   \   000003   8A..         MOV       ?V2,R2
   \   000005   8B..         MOV       ?V3,R3
   \   000007   C3           CLR       C
   \   000008   22           RET

   \                                 In  segment BANKED_CODE, align 1, keep-with-next
   \   __banked_func __xdata_reentrant uint8 tenSqure(uint8)
   \                     tenSqure:
   \   000000                ; Saved register size: 0
   \   000000                ; Auto size: 0
   \   000000   E9           MOV       A,R1
   \   000001   FA           MOV       R2,A
   \   000002   7901         MOV       R1,#0x1
   \   000004   7800         MOV       R0,#0x0
   \   000006   8007         SJMP      ??tenSqure_0
   \                     ??tenSqure_1:
   \   000008   75F00A       MOV       B,#0xa
   \   00000B   E9           MOV       A,R1
   \   00000C   A4           MUL       AB
   \   00000D   F9           MOV       R1,A
   \   00000E   08           INC       R0
   \                     ??tenSqure_0:
   \   00000F   E8           MOV       A,R0
   \   000010   C3           CLR       C
   \   000011   9A           SUBB      A,R2
   \   000012   40F4         JC        ??tenSqure_1
   \   000014   02....       LJMP      ?BRET

   \                                 In  segment BANKED_CODE, align 1, keep-with-next
   \                     ?Subroutine6:
   \   000000   12....       LCALL     ?DEALLOC_XSTACK8
   \   000003                REQUIRE ??Subroutine85_0
   \   000003                ; // Fall through to label ??Subroutine85_0

   \                                 In  segment BANKED_CODE, align 1, keep-with-next
   \   __banked_func __xdata_reentrant char *getInfoBeforeCharR(char *, char *)
   \                     getInfoBeforeCharR:
   \   000000                REQUIRE ?V0
   \   000000                REQUIRE ?V1
   \   000000                REQUIRE ?V2
   \   000000                REQUIRE ?V3
   \   000000                REQUIRE ?V4
   \   000000                REQUIRE ?V6
   \   000000                REQUIRE ?V7
   \   000000   74F0         MOV       A,#-0x10
   \   000002   12....       LCALL     ?BANKED_ENTER_XDATA
   \   000005                ; Saved register size: 16
   \   000005                ; Auto size: 2
   \   000005   74FE         MOV       A,#-0x2
   \   000007   12....       LCALL     ?ALLOC_XSTACK8
   \   00000A   12....       LCALL     ?Subroutine9 & 0xFFFF
   \                     ??CrossCallReturnLabel_143:
   \   00000D   8C..         MOV       ?V6,R4
   \   00000F   8D..         MOV       ?V7,R5
   \   000011   75..00       MOV       ?V4,#0x0
   \   000014   75..00       MOV       ?V1,#0x0
   \   000017   75..00       MOV       ?V0,#0x0
   \   00001A   8023         SJMP      ??getInfoBeforeCharR_0
   \                     ??getInfoBeforeCharR_1:
   \   00001C   A8..         MOV       R0,?V4
   \   00001E   12....       LCALL     ?Subroutine50 & 0xFFFF
   \                     ??CrossCallReturnLabel_77:
   \   000021   24D0         ADD       A,#-0x30
   \   000023   FE           MOV       R6,A
   \   000024                ; Setup parameters for call to function tenSqure
   \   000024                ; Setup parameters for call to function strlen
   \   000024   AA..         MOV       R2,?V6
   \   000026   AB..         MOV       R3,?V7
   \   000028   12....       LCALL     `??strlen::?relay`; Banked call to: strlen
   \   00002B   EA           MOV       A,R2
   \   00002C   C3           CLR       C
   \   00002D   95..         SUBB      A,?V4
   \   00002F   14           DEC       A
   \   000030   F9           MOV       R1,A
   \   000031   12....       LCALL     `??tenSqure::?relay`; Banked call to: tenSqure
   \   000034   E9           MOV       A,R1
   \   000035   F5F0         MOV       B,A
   \   000037   EE           MOV       A,R6
   \   000038   A4           MUL       AB
   \   000039   25..         ADD       A,?V0
   \   00003B   F5..         MOV       ?V0,A
   \   00003D   05..         INC       ?V4
   \                     ??getInfoBeforeCharR_0:
   \   00003F                ; Setup parameters for call to function strlen
   \   00003F   AA..         MOV       R2,?V6
   \   000041   AB..         MOV       R3,?V7
   \   000043   12....       LCALL     ?Subroutine70 & 0xFFFF
   \                     ??CrossCallReturnLabel_107:
   \   000046   E5..         MOV       A,?V4
   \   000048   95..         SUBB      A,?V2
   \   00004A   E4           CLR       A
   \   00004B   95..         SUBB      A,?V3
   \   00004D   40CD         JC        ??getInfoBeforeCharR_1
   \                     ??getInfoBeforeCharR_2:
   \   00004F   E5..         MOV       A,?V1
   \   000051   C3           CLR       C
   \   000052   95..         SUBB      A,?V0
   \   000054   5026         JNC       ??getInfoBeforeCharR_3
   \   000056   A8..         MOV       R0,?V1
   \   000058   85..82       MOV       DPL,?XSP + 0
   \   00005B   85..83       MOV       DPH,?XSP + 1
   \   00005E   E0           MOVX      A,@DPTR
   \   00005F   28           ADD       A,R0
   \   000060   FA           MOV       R2,A
   \   000061   A3           INC       DPTR
   \   000062   E0           MOVX      A,@DPTR
   \   000063   3400         ADDC      A,#0x0
   \   000065   8A82         MOV       DPL,R2
   \   000067   F583         MOV       DPH,A
   \   000069   E0           MOVX      A,@DPTR
   \   00006A   C0E0         PUSH      A
   \   00006C   74..         MOV       A,#substr2 & 0xff
   \   00006E   12....       LCALL     ?Subroutine78 & 0xFFFF
   \                     ??CrossCallReturnLabel_187:
   \   000071   34..         ADDC      A,#(substr2 >> 8) & 0xff
   \   000073   F583         MOV       DPH,A
   \   000075   D0E0         POP       A
   \   000077   F0           MOVX      @DPTR,A
   \   000078   05..         INC       ?V1
   \   00007A   80D3         SJMP      ??getInfoBeforeCharR_2
   \                     ??getInfoBeforeCharR_3:
   \   00007C   7A..         MOV       R2,#substr2 & 0xff
   \   00007E   7B..         MOV       R3,#(substr2 >> 8) & 0xff
   \   000080   7402         MOV       A,#0x2
   \   000082   02....       LJMP      ?Subroutine6 & 0xFFFF

   \                                 In  segment BANKED_CODE, align 1, keep-with-next
   \                     ?Subroutine50:
   \   000000   E5..         MOV       A,?V6
   \   000002   12....       LCALL     ?Subroutine78 & 0xFFFF
   \                     ??CrossCallReturnLabel_191:
   \   000005   35..         ADDC      A,?V7
   \   000007   F583         MOV       DPH,A
   \   000009   E0           MOVX      A,@DPTR
   \   00000A   22           RET

   \                                 In  segment BANKED_CODE, align 1, keep-with-next
   \   __banked_func __xdata_reentrant char *deleteBeforeChar(char *, char)
   \                     deleteBeforeChar:
   \   000000                REQUIRE ?V0
   \   000000                REQUIRE ?V1
   \   000000                REQUIRE ?V2
   \   000000                REQUIRE ?V3
   \   000000                REQUIRE ?V4
   \   000000                REQUIRE ?V5
   \   000000                REQUIRE ?V6
   \   000000                REQUIRE ?V7
   \   000000   74F0         MOV       A,#-0x10
   \   000002   12....       LCALL     ?BANKED_ENTER_XDATA
   \   000005                ; Saved register size: 16
   \   000005                ; Auto size: 0
   \   000005   8A..         MOV       ?V6,R2
   \   000007   8B..         MOV       ?V7,R3
   \   000009   89..         MOV       ?V3,R1
   \   00000B   75..00       MOV       ?V2,#0x0
   \   00000E   8A..         MOV       ?V0,R2
   \   000010   8B..         MOV       ?V1,R3
   \   000012   8002         SJMP      ??deleteBeforeChar_0
   \                     ??deleteBeforeChar_1:
   \   000014   05..         INC       ?V2
   \                     ??deleteBeforeChar_0:
   \   000016                ; Setup parameters for call to function strlen
   \   000016   12....       LCALL     ?Subroutine37 & 0xFFFF
   \                     ??CrossCallReturnLabel_169:
   \   000019   5016         JNC       ??deleteBeforeChar_2
   \   00001B   A8..         MOV       R0,?V2
   \   00001D   12....       LCALL     ?Subroutine50 & 0xFFFF
   \                     ??CrossCallReturnLabel_78:
   \   000020   65..         XRL       A,?V3
   \   000022   85..82       MOV       DPL,?V0
   \   000025   85..83       MOV       DPH,?V1
   \   000028   A3           INC       DPTR
   \   000029   8582..       MOV       ?V0,DPL
   \   00002C   8583..       MOV       ?V1,DPH
   \   00002F   70E3         JNZ       ??deleteBeforeChar_1
   \                     ??deleteBeforeChar_2:
   \   000031   AA..         MOV       R2,?V0
   \   000033   AB..         MOV       R3,?V1
   \   000035   02....       LJMP      ??Subroutine85_0 & 0xFFFF

   \                                 In  segment BANKED_CODE, align 1, keep-with-next
   \   __banked_func __xdata_reentrant char *firstAlphaStr(char *)
   \                     firstAlphaStr:
   \   000000                REQUIRE ?V0
   \   000000                REQUIRE ?V1
   \   000000                REQUIRE ?V2
   \   000000                REQUIRE ?V3
   \   000000                REQUIRE ?V4
   \   000000                REQUIRE ?V5
   \   000000   74F2         MOV       A,#-0xe
   \   000002   12....       LCALL     ?BANKED_ENTER_XDATA
   \   000005                ; Saved register size: 14
   \   000005                ; Auto size: 255
   \   000005   7401         MOV       A,#0x1
   \   000007   12....       LCALL     ?ALLOC_XSTACK8
   \   00000A   8A..         MOV       ?V4,R2
   \   00000C   8B..         MOV       ?V5,R3
   \   00000E   75..00       MOV       ?V0,#0x0
   \   000011   90....       MOV       DPTR,#`?<Constant "">_2`
   \   000014   AC..         MOV       R4,?XSP + 0
   \   000016   AD..         MOV       R5,?XSP + 1
   \   000018   74FF         MOV       A,#-0x1
   \   00001A   12....       LCALL     ?MOVE_LONG8_XDATA_XDATA
   \   00001D   75..00       MOV       ?V1,#0x0
   \   000020   800F         SJMP      ??firstAlphaStr_0
   \                     ??firstAlphaStr_1:
   \   000022   12....       LCALL     ?Subroutine45 & 0xFFFF
   \                     ??CrossCallReturnLabel_69:
   \   000025   C0E0         PUSH      A
   \   000027   12....       LCALL     ?Subroutine48 & 0xFFFF
   \                     ??CrossCallReturnLabel_183:
   \   00002A   D0E0         POP       A
   \   00002C   F0           MOVX      @DPTR,A
   \   00002D   05..         INC       ?V0
   \   00002F   05..         INC       ?V1
   \                     ??firstAlphaStr_0:
   \   000031                ; Setup parameters for call to function strlen
   \   000031   12....       LCALL     ?Subroutine41 & 0xFFFF
   \                     ??CrossCallReturnLabel_59:
   \   000034   5013         JNC       ??firstAlphaStr_2
   \   000036   12....       LCALL     ?Subroutine45 & 0xFFFF
   \                     ??CrossCallReturnLabel_70:
   \   000039   F8           MOV       R0,A
   \   00003A   74..         MOV       A,#(_Small_Ctype + 1) & 0xff
   \   00003C   12....       LCALL     ?Subroutine78 & 0xFFFF
   \                     ??CrossCallReturnLabel_188:
   \   00003F   34..         ADDC      A,#((_Small_Ctype + 1) >> 8) & 0xff
   \   000041   F583         MOV       DPH,A
   \   000043   E4           CLR       A
   \   000044   93           MOVC      A,@A+DPTR
   \   000045   5403         ANL       A,#0x3
   \   000047   70D9         JNZ       ??firstAlphaStr_1
   \                     ??firstAlphaStr_2:
   \   000049   12....       LCALL     ?Subroutine48 & 0xFFFF
   \                     ??CrossCallReturnLabel_184:
   \   00004C   E4           CLR       A
   \   00004D   F0           MOVX      @DPTR,A
   \   00004E   AA..         MOV       R2,?XSP + 0
   \   000050   AB..         MOV       R3,?XSP + 1
   \   000052   74FF         MOV       A,#-0x1
   \   000054   02....       LJMP      ?Subroutine3 & 0xFFFF

   \                                 In  segment BANKED_CODE, align 1, keep-with-next
   \   __banked_func __xdata_reentrant uint8 OK_ERROR(List *)
   \                     OK_ERROR:
   \   000000                REQUIRE ?V0
   \   000000                REQUIRE ?V1
   \   000000   74F6         MOV       A,#-0xa
   \   000002   12....       LCALL     ?BANKED_ENTER_XDATA
   \   000005                ; Saved register size: 10
   \   000005                ; Auto size: 11
   \   000005   74F5         MOV       A,#-0xb
   \   000007   12....       LCALL     ?ALLOC_XSTACK8
   \   00000A   12....       LCALL     ?Subroutine9 & 0xFFFF
   \                     ??CrossCallReturnLabel_144:
   \   00000D   90....       MOV       DPTR,#`?<Constant "OK">_1`
   \   000010   7402         MOV       A,#0x2
   \   000012   12....       LCALL     ?XSTACK_DISP102_8
   \   000015   7403         MOV       A,#0x3
   \   000017   12....       LCALL     ?MOVE_LONG8_XDATA_XDATA
   \   00001A   90....       MOV       DPTR,#`?<Constant "ERROR">_1`
   \   00001D   7406         MOV       A,#0x6
   \   00001F   12....       LCALL     ?MOVE_LONG8_XDATA_XDATA
   \   000022                ; Setup parameters for call to function listSize
   \   000022   AA..         MOV       R2,?XSP + 0
   \   000024   AB..         MOV       R3,?XSP + 1
   \   000026   12....       LCALL     `??listSize::?relay`; Banked call to: listSize
   \   000029   E9           MOV       A,R1
   \   00002A   F8           MOV       R0,A
   \   00002B                ; Setup parameters for call to function get
   \   00002B   19           DEC       R1
   \   00002C   AA..         MOV       R2,?XSP + 0
   \   00002E   AB..         MOV       R3,?XSP + 1
   \   000030   12....       LCALL     `??get::?relay`  ; Banked call to: get
   \   000033   8A..         MOV       ?V0,R2
   \   000035   8B..         MOV       ?V1,R3
   \   000037                ; Setup parameters for call to function strcmp
   \   000037   7402         MOV       A,#0x2
   \   000039   12....       LCALL     ?XSTACK_DISP102_8
   \   00003C   12....       LCALL     ??Subroutine83_0 & 0xFFFF
   \                     ??CrossCallReturnLabel_166:
   \   00003F   7004         JNZ       ??OK_ERROR_0
   \   000041   7901         MOV       R1,#0x1
   \   000043   8014         SJMP      ??OK_ERROR_1
   \                     ??OK_ERROR_0:
   \   000045                ; Setup parameters for call to function strcmp
   \   000045   7405         MOV       A,#0x5
   \   000047   12....       LCALL     ?XSTACK_DISP102_8
   \   00004A   AA..         MOV       R2,?V0
   \   00004C   AB..         MOV       R3,?V1
   \   00004E   12....       LCALL     ??Subroutine83_0 & 0xFFFF
   \                     ??CrossCallReturnLabel_167:
   \   000051   7004         JNZ       ??OK_ERROR_2
   \   000053   7900         MOV       R1,#0x0
   \   000055   8002         SJMP      ??OK_ERROR_1
   \                     ??OK_ERROR_2:
   \   000057   79FF         MOV       R1,#-0x1
   \                     ??OK_ERROR_1:
   \   000059   740B         MOV       A,#0xb
   \   00005B   12....       LCALL     ?DEALLOC_XSTACK8
   \   00005E                REQUIRE ?Subroutine0
   \   00005E                ; // Fall through to label ?Subroutine0
      4          #include <string.h>
      5          
      6          /*********************************************************************
      7           * FUNCTIONS
      8           *********************************************************************/
      9          static void createEndPoint(struct ep_info_t *epInfo, uint8 *task_id, uint8 ep);
     10          #if defined(ZDO_COORDINATOR)
     11          static uint8 uartMsgProcesser(uint8 *msg);
     12          #endif
     13          static uint8 uartMsgProcesser1(uint8 *msg);
     14          
     15          /*********************************************************************
     16           * Local Variables
     17           *********************************************************************/
     18          //uint8 ctrlBuffer[sizeof(TOPOINFO) + sizeof(FUNCTABLE) + FUNC_NUM * sizeof(FUNCINFO)];

   \                                 In  segment XDATA_I, align 1, keep-with-next
     19          static TOPOINFO topoBuffer = { 0x02 };
   \                     topoBuffer:
   \   000000                DS 14
   \   00000E                REQUIRE `?<Initializer for topoBuffer>`
   \   00000E                REQUIRE __INIT_XDATA_I

   \                                 In  segment XDATA_Z, align 1, keep-with-next
     20          FUNCTABLE *funcTableBuffer;// = (FUNCTABLE *)(&ctrlBuffer[sizeof(TOPOINFO)]);
   \                     funcTableBuffer:
   \   000000                DS 2
   \   000002                REQUIRE __INIT_XDATA_Z
     21          

   \                                 In  segment XDATA_Z, align 1, keep-with-next
     22          static devStates_t curNwkState;
   \                     curNwkState:
   \   000000                DS 1
   \   000001                REQUIRE __INIT_XDATA_Z

   \                                 In  segment XDATA_Z, align 1, keep-with-next
     23          static uint8 controlTaskId;
   \                     controlTaskId:
   \   000000                DS 1
   \   000001                REQUIRE __INIT_XDATA_Z

   \                                 In  segment XDATA_Z, align 1, keep-with-next
     24          static uint8 functionTaskId;
   \                     functionTaskId:
   \   000000                DS 1
   \   000001                REQUIRE __INIT_XDATA_Z

   \                                 In  segment XDATA_Z, align 1, keep-with-next
     25          static struct ep_info_t controlEndPointInfo;
   \                     controlEndPointInfo:
   \   000000                DS 33
   \   000021                REQUIRE __INIT_XDATA_Z

   \                                 In  segment XDATA_Z, align 1, keep-with-next
     26          static uint8 isUserTimerRunning = 0;
   \                     isUserTimerRunning:
   \   000000                DS 1
   \   000001                REQUIRE __INIT_XDATA_Z
     27          

   \                                 In  segment BANKED_CODE, align 1, keep-with-next
     28          static void UartTX_Send_String(char *Data,int len)
   \                     UartTX_Send_String:
     29          {
   \   000000   74F7         MOV       A,#-0x9
   \   000002   12....       LCALL     ?BANKED_ENTER_XDATA
   \   000005                ; Saved register size: 9
   \   000005                ; Auto size: 0
     30            int j;
     31            for(j=0;j<len;j++)
   \   000005   7800         MOV       R0,#0x0
   \   000007   7900         MOV       R1,#0x0
   \   000009   8017         SJMP      ??UartTX_Send_String_0
     32            {
     33              U0DBUF = *Data++;  //USART 0 Receive/Transmit Data Buffer  
   \                     ??UartTX_Send_String_1:
   \   00000B   8A82         MOV       DPL,R2
   \   00000D   8B83         MOV       DPH,R3
   \   00000F   E0           MOVX      A,@DPTR
   \   000010   F5C1         MOV       0xc1,A
   \   000012   A3           INC       DPTR
   \   000013   AA82         MOV       R2,DPL
   \   000015   AB83         MOV       R3,DPH
     34              while(UTX0IF == 0);// == 0 
   \                     ??UartTX_Send_String_2:
   \   000017   A2E9         MOV       C,0xe8.1
   \   000019   50FC         JNC       ??UartTX_Send_String_2
     35              UTX0IF = 0;
   \   00001B   C2E9         CLR       0xe8.1
     36            }
   \   00001D   08           INC       R0
   \   00001E   E8           MOV       A,R0
   \   00001F   7001         JNZ       ??UartTX_Send_String_0
   \   000021   09           INC       R1
   \                     ??UartTX_Send_String_0:
   \   000022   C3           CLR       C
   \   000023   E8           MOV       A,R0
   \   000024   9C           SUBB      A,R4
   \   000025   E9           MOV       A,R1
   \   000026   9D           SUBB      A,R5
   \   000027   A2D2         MOV       C,0xD0 /* PSW */.2
   \   000029   65D0         XRL       A,PSW
   \   00002B   33           RLC       A
   \   00002C   40DD         JC        ??UartTX_Send_String_1
     37          }
   \   00002E   02....       LJMP      ?Subroutine2 & 0xFFFF
   \   000031                REQUIRE U0DBUF
   \   000031                REQUIRE _A_IRCON2
     38          

   \                                 In  segment BANKED_CODE, align 1, keep-with-next
     39          void delayms(unsigned char ms)  //1ms
   \                     delayms:
     40          {
   \   000000                ; Saved register size: 0
   \   000000                ; Auto size: 0
     41            char k = 63;
   \   000000   7A3F         MOV       R2,#0x3f
     42            char l = 16;
   \   000002   7810         MOV       R0,#0x10
     43            while(ms--)
   \                     ??delayms_0:
   \   000004   E9           MOV       A,R1
   \   000005   FB           MOV       R3,A
   \   000006   74FF         MOV       A,#-0x1
   \   000008   2B           ADD       A,R3
   \   000009   F9           MOV       R1,A
   \   00000A   04           INC       A
   \   00000B   6014         JZ        ??delayms_1
     44              while (k--)
   \                     ??delayms_2:
   \   00000D   EA           MOV       A,R2
   \   00000E   FC           MOV       R4,A
   \   00000F   74FF         MOV       A,#-0x1
   \   000011   2C           ADD       A,R4
   \   000012   FA           MOV       R2,A
   \   000013   04           INC       A
   \   000014   60EE         JZ        ??delayms_0
     45                while(l--);
   \                     ??delayms_3:
   \   000016   E8           MOV       A,R0
   \   000017   FD           MOV       R5,A
   \   000018   74FF         MOV       A,#-0x1
   \   00001A   2D           ADD       A,R5
   \   00001B   F8           MOV       R0,A
   \   00001C   04           INC       A
   \   00001D   60EE         JZ        ??delayms_2
   \   00001F   80F5         SJMP      ??delayms_3
     46          }
   \                     ??delayms_1:
   \   000021   02....       LJMP      ?BRET
     47          

   \                                 In  segment BANKED_CODE, align 1, keep-with-next
     48          void Cfg32M()
   \                     Cfg32M:
     49          {
   \   000000                ; Saved register size: 0
   \   000000                ; Auto size: 0
     50              SLEEPCMD &=0xFB; //fB 0 00 2
   \   000000   53BEFB       ANL       0xbe,#0xfb
     51              while(0==(SLEEPSTA & 0x40));  //  0100 0000  32M 
   \                     ??Cfg32M_0:
   \   000003   E59D         MOV       A,0x9d
   \   000005   A2E6         MOV       C,0xE0 /* A   */.6
   \   000007   50FA         JNC       ??Cfg32M_0
     52              CLKCONCMD &=0xF8; //1111 1000 
   \   000009   53C6F8       ANL       0xc6,#0xf8
     53          
     54              CLKCONCMD &=0xBF;//1011 1111 32MCPU
   \   00000C   53C6BF       ANL       0xc6,#0xbf
     55              while(1==(CLKCONSTA & 0x40));//32MCPU
   \   00000F   E59E         MOV       A,0x9e
     56              SLEEPCMD |=0x40;// 0000 0100 
   \   000011   43BE40       ORL       0xbe,#0x40
     57          }
   \   000014   02....       LJMP      ?BRET
   \   000017                REQUIRE SLEEPCMD
   \   000017                REQUIRE SLEEPSTA
   \   000017                REQUIRE CLKCONCMD
   \   000017                REQUIRE CLKCONSTA
     58          

   \                                 In  segment BANKED_CODE, align 1, keep-with-next
     59          void UartCfg()
   \                     UartCfg:
     60          {//019600
   \   000000                ; Saved register size: 0
   \   000000                ; Auto size: 0
     61             PERCFG &=0xFE;//1111 1110 01
   \   000000   53F1FE       ANL       0xf1,#0xfe
     62             P0SEL  |=0x0C;       //0000 1100 P0_2 p0_3
   \   000003   43F30C       ORL       0xf3,#0xc
     63             
     64             U0CSR |=0Xc0;
   \   000006   4386C0       ORL       0x86,#0xc0
     65             
     66             U0GCR =8;
   \   000009   75C508       MOV       0xc5,#0x8
     67             U0BAUD=59;
   \   00000C   75C23B       MOV       0xc2,#0x3b
     68             EA=1;
   \   00000F   D2AF         SETB      0xa8.7
     69             URX0IE=1;
   \   000011   D2AA         SETB      0xa8.2
     70          }
   \   000013   02....       LJMP      ?BRET
   \   000016                REQUIRE PERCFG
   \   000016                REQUIRE P0SEL
   \   000016                REQUIRE U0CSR
   \   000016                REQUIRE U0GCR
   \   000016                REQUIRE U0BAUD
   \   000016                REQUIRE _A_IEN0
     71          

   \                                 In  segment BANKED_CODE, align 1, keep-with-next
     72          void sapp_taskInitProcess(void)
   \                     sapp_taskInitProcess:
     73          {
   \   000000                REQUIRE ?V0
   \   000000                REQUIRE ?V1
   \   000000   74F6         MOV       A,#-0xa
   \   000002   12....       LCALL     ?BANKED_ENTER_XDATA
   \   000005                ; Saved register size: 10
   \   000005                ; Auto size: 0
     74           #if defined ( BUILD_ALL_DEVICES )
     75              // The "Demo" target is setup to have BUILD_ALL_DEVICES and HOLD_AUTO_START
     76              // We are looking at a jumper (defined in SampleAppHw.c) to be jumpered
     77              // together - if they are - we will start up a coordinator. Otherwise,
     78              // the device will start as a router.
     79              if ( readCoordinatorJumper() )
     80                  zgDeviceLogicalType = ZG_DEVICETYPE_COORDINATOR;
     81              else
     82                  zgDeviceLogicalType = ZG_DEVICETYPE_ROUTER;
     83          #endif // BUILD_ALL_DEVICES
     84          
     85          #if defined ( HOLD_AUTO_START )
     86              // HOLD_AUTO_START is a compile option that will surpress ZDApp
     87              //  from starting the device and wait for the application to
     88              //  start the device.
     89              ZDOInitDevice(0);
     90          #endif
     91          
     92              // 
     93              funcTableBuffer = createFuncTable(funcCount);
   \   000005                ; Setup parameters for call to function osal_mem_alloc
   \   000005   90....       MOV       DPTR,#funcCount
   \   000008   E0           MOVX      A,@DPTR
   \   000009   75F003       MOV       B,#0x3
   \   00000C   A4           MUL       AB
   \   00000D   A9F0         MOV       R1,B
   \   00000F   2402         ADD       A,#0x2
   \   000011   FA           MOV       R2,A
   \   000012   E4           CLR       A
   \   000013   39           ADDC      A,R1
   \   000014   FB           MOV       R3,A
   \   000015   12....       LCALL     `??osal_mem_alloc::?relay`; Banked call to: osal_mem_alloc
   \   000018   90....       MOV       DPTR,#funcTableBuffer
   \   00001B   12....       LCALL     ??Subroutine82_0 & 0xFFFF
     94              funcTableBuffer->ft_type = 0x01;
   \                     ??CrossCallReturnLabel_139:
   \   00001E   F583         MOV       DPH,A
   \   000020   8A82         MOV       DPL,R2
   \   000022   7401         MOV       A,#0x1
   \   000024   F0           MOVX      @DPTR,A
     95              funcTableBuffer->ft_count = funcCount;
   \   000025   90....       MOV       DPTR,#funcCount
   \   000028   E0           MOVX      A,@DPTR
   \   000029   C0E0         PUSH      A
   \   00002B   90....       MOV       DPTR,#funcTableBuffer
   \   00002E   E0           MOVX      A,@DPTR
   \   00002F   F8           MOV       R0,A
   \   000030   12....       LCALL     ??Subroutine92_0 & 0xFFFF
   \                     ??CrossCallReturnLabel_210:
   \   000033   A3           INC       DPTR
   \   000034   D0E0         POP       A
   \   000036   F0           MOVX      @DPTR,A
     96              int i;
     97              for(i = 0; i < funcCount; i++)
   \   000037   7E00         MOV       R6,#0x0
   \   000039   7F00         MOV       R7,#0x0
   \   00003B   804F         SJMP      ??sapp_taskInitProcess_0
     98              {
     99                  funcTableBuffer->ft_list[i].type = funcList[i].function.type;
   \                     ??sapp_taskInitProcess_1:
   \   00003D   12....       LCALL     ?Subroutine56 & 0xFFFF
    100                  funcTableBuffer->ft_list[i].id = funcList[i].function.id;
    101                  funcTableBuffer->ft_list[i].cycle = funcList[i].function.cycle;
    102              }
   \                     ??CrossCallReturnLabel_195:
   \   000040   F8           MOV       R0,A
   \   000041   74..         MOV       A,#(funcList >> 8) & 0xff
   \   000043   39           ADDC      A,R1
   \   000044   F9           MOV       R1,A
   \   000045   E8           MOV       A,R0
   \   000046   FA           MOV       R2,A
   \   000047   E9           MOV       A,R1
   \   000048   FB           MOV       R3,A
   \   000049   EE           MOV       A,R6
   \   00004A   F8           MOV       R0,A
   \   00004B   EF           MOV       A,R7
   \   00004C   F9           MOV       R1,A
   \   00004D   E8           MOV       A,R0
   \   00004E   75F003       MOV       B,#0x3
   \   000051   A4           MUL       AB
   \   000052   F8           MOV       R0,A
   \   000053   ACF0         MOV       R4,B
   \   000055   75F003       MOV       B,#0x3
   \   000058   E9           MOV       A,R1
   \   000059   A4           MUL       AB
   \   00005A   2C           ADD       A,R4
   \   00005B   F9           MOV       R1,A
   \   00005C   8A82         MOV       DPL,R2
   \   00005E   8B83         MOV       DPH,R3
   \   000060   A3           INC       DPTR
   \   000061   A3           INC       DPTR
   \   000062   A3           INC       DPTR
   \   000063   A3           INC       DPTR
   \   000064   A3           INC       DPTR
   \   000065   A3           INC       DPTR
   \   000066   A3           INC       DPTR
   \   000067   A3           INC       DPTR
   \   000068   E0           MOVX      A,@DPTR
   \   000069   C0E0         PUSH      A
   \   00006B   12....       LCALL     ?Subroutine27 & 0xFFFF
   \                     ??CrossCallReturnLabel_41:
   \   00006E   D0E0         POP       A
   \   000070   12....       LCALL     ?Subroutine61 & 0xFFFF
   \                     ??CrossCallReturnLabel_95:
   \   000073   E0           MOVX      A,@DPTR
   \   000074   C0E0         PUSH      A
   \   000076   12....       LCALL     ?Subroutine27 & 0xFFFF
   \                     ??CrossCallReturnLabel_42:
   \   000079   A3           INC       DPTR
   \   00007A   D0E0         POP       A
   \   00007C   12....       LCALL     ?Subroutine8 & 0xFFFF
   \                     ??CrossCallReturnLabel_0:
   \   00007F   C0E0         PUSH      A
   \   000081   12....       LCALL     ?Subroutine23 & 0xFFFF
   \                     ??CrossCallReturnLabel_35:
   \   000084   D0E0         POP       A
   \   000086   F0           MOVX      @DPTR,A
   \   000087   0E           INC       R6
   \   000088   EE           MOV       A,R6
   \   000089   7001         JNZ       ??sapp_taskInitProcess_0
   \   00008B   0F           INC       R7
   \                     ??sapp_taskInitProcess_0:
   \   00008C   12....       LCALL     ?Subroutine25 & 0xFFFF
   \                     ??CrossCallReturnLabel_39:
   \   00008F   40AC         JC        ??sapp_taskInitProcess_1
    103              controlTaskId = tasksCnt - 2;
   \   000091   90....       MOV       DPTR,#tasksCnt
   \   000094   E0           MOVX      A,@DPTR
   \   000095   24FE         ADD       A,#-0x2
   \   000097   90....       MOV       DPTR,#controlTaskId
   \   00009A   F0           MOVX      @DPTR,A
    104              functionTaskId = tasksCnt - 1;
   \   00009B   90....       MOV       DPTR,#tasksCnt
   \   00009E   E0           MOVX      A,@DPTR
   \   00009F   14           DEC       A
   \   0000A0   90....       MOV       DPTR,#functionTaskId
   \   0000A3   F0           MOVX      @DPTR,A
    105              HalIOInit(functionTaskId);
   \   0000A4                ; Setup parameters for call to function HalIOInit
   \   0000A4   F9           MOV       R1,A
   \   0000A5   12....       LCALL     `??HalIOInit::?relay`; Banked call to: HalIOInit
    106              createEndPoint(&controlEndPointInfo, &controlTaskId, CONTROL_ENDPOINT);
   \   0000A8                ; Setup parameters for call to function createEndPoint
   \   0000A8   79F0         MOV       R1,#-0x10
   \   0000AA   7C..         MOV       R4,#controlTaskId & 0xff
   \   0000AC   7D..         MOV       R5,#(controlTaskId >> 8) & 0xff
   \   0000AE   7A..         MOV       R2,#controlEndPointInfo & 0xff
   \   0000B0   7B..         MOV       R3,#(controlEndPointInfo >> 8) & 0xff
   \   0000B2   12....       LCALL     `??createEndPoint::?relay`; Banked call to: createEndPoint
    107              for(i = 0; i < funcCount; i++)
   \   0000B5   7E00         MOV       R6,#0x0
   \   0000B7   7F00         MOV       R7,#0x0
   \   0000B9   8038         SJMP      ??sapp_taskInitProcess_2
    108              {
    109                  struct ep_info_t *ep = &funcList[i];
   \                     ??sapp_taskInitProcess_3:
   \   0000BB   12....       LCALL     ?Subroutine56 & 0xFFFF
   \                     ??CrossCallReturnLabel_196:
   \   0000BE   F5..         MOV       ?V0,A
   \   0000C0   74..         MOV       A,#(funcList >> 8) & 0xff
   \   0000C2   39           ADDC      A,R1
   \   0000C3   F5..         MOV       ?V1,A
    110                  createEndPoint(ep, &functionTaskId, i + 1);
   \   0000C5                ; Setup parameters for call to function createEndPoint
   \   0000C5   EE           MOV       A,R6
   \   0000C6   04           INC       A
   \   0000C7   F9           MOV       R1,A
   \   0000C8   7C..         MOV       R4,#functionTaskId & 0xff
   \   0000CA   7D..         MOV       R5,#(functionTaskId >> 8) & 0xff
   \   0000CC   AA..         MOV       R2,?V0
   \   0000CE   AB..         MOV       R3,?V1
   \   0000D0   12....       LCALL     `??createEndPoint::?relay`; Banked call to: createEndPoint
    111                  if(ep->res_available)
   \   0000D3   85..82       MOV       DPL,?V0
   \   0000D6   85..83       MOV       DPH,?V1
   \   0000D9   12....       LCALL     ??Subroutine94_0 & 0xFFFF
   \                     ??CrossCallReturnLabel_233:
   \   0000DC   6010         JZ        ??sapp_taskInitProcess_4
    112                    (*ep->res_available)(ep, ResInit, NULL);
   \   0000DE                ; Setup parameters for indirect call
   \   0000DE   7C00         MOV       R4,#0x0
   \   0000E0   7D00         MOV       R5,#0x0
   \   0000E2   7901         MOV       R1,#0x1
   \   0000E4   AA..         MOV       R2,?V0
   \   0000E6   AB..         MOV       R3,?V1
   \   0000E8   12....       LCALL     ?Subroutine22 & 0xFFFF
    113              }
   \                     ??CrossCallReturnLabel_217:
   \   0000EB   12....       LCALL     ?CALL_IND
   \                     ??sapp_taskInitProcess_4:
   \   0000EE   0E           INC       R6
   \   0000EF   EE           MOV       A,R6
   \   0000F0   7001         JNZ       ??sapp_taskInitProcess_2
   \   0000F2   0F           INC       R7
   \                     ??sapp_taskInitProcess_2:
   \   0000F3   12....       LCALL     ?Subroutine25 & 0xFFFF
   \                     ??CrossCallReturnLabel_40:
   \   0000F6   40C3         JC        ??sapp_taskInitProcess_3
    114          //#if defined(ZDO_COORDINATOR)// || defined(RTR_NWK)
    115          //    RegisterForKeys( SampleApp_TaskID );
    116              MT_UartRegisterTaskID(controlTaskId);
   \   0000F8                ; Setup parameters for call to function MT_UartRegisterTaskID
   \   0000F8   90....       MOV       DPTR,#controlTaskId
   \   0000FB   E0           MOVX      A,@DPTR
   \   0000FC   F9           MOV       R1,A
   \   0000FD   12....       LCALL     `??MT_UartRegisterTaskID::?relay`; Banked call to: MT_UartRegisterTaskID
    117          //#endif
    118              
    119              UartTX_Send_String("AT+CIPMUX=1\r\n",13);
   \   000100                ; Setup parameters for call to function UartTX_Send_String
   \   000100   7C0D         MOV       R4,#0xd
   \   000102   7D00         MOV       R5,#0x0
   \   000104   7A..         MOV       R2,#`?<Constant "AT+CIPMUX=1\\r\\n">` & 0xff
   \   000106   7B..         MOV       R3,#(`?<Constant "AT+CIPMUX=1\\r\\n">` >> 8) & 0xff
   \   000108   12....       LCALL     ?Subroutine52 & 0xFFFF
    120              delayms(100);
    121              UartTX_Send_String("AT+CIPSERVER=1,8080\r\n",21);
   \                     ??CrossCallReturnLabel_81:
   \   00010B                ; Setup parameters for call to function UartTX_Send_String
   \   00010B   7C15         MOV       R4,#0x15
   \   00010D   7D00         MOV       R5,#0x0
   \   00010F   7A..         MOV       R2,#`?<Constant "AT+CIPSERVER=1,8080\\r\\n">` & 0xff
   \   000111   7B..         MOV       R3,#(`?<Constant "AT+CIPSERVER=1,8080\\r\\n">` >> 8) & 0xff
   \   000113   12....       LCALL     ?Subroutine52 & 0xFFFF
    122              delayms(100);
    123              
    124          }
   \                     ??CrossCallReturnLabel_82:
   \   000116   02....       LJMP      ?Subroutine0 & 0xFFFF

   \                                 In  segment BANKED_CODE, align 1, keep-with-next
   \                     ?Subroutine56:
   \   000000   EE           MOV       A,R6
   \   000001   F8           MOV       R0,A
   \   000002   EF           MOV       A,R7
   \   000003   F9           MOV       R1,A
   \   000004   E8           MOV       A,R0
   \   000005   75F021       MOV       B,#0x21
   \   000008   A4           MUL       AB
   \   000009   F8           MOV       R0,A
   \   00000A   AAF0         MOV       R2,B
   \   00000C   75F021       MOV       B,#0x21
   \   00000F   E9           MOV       A,R1
   \   000010                REQUIRE ??Subroutine89_0
   \   000010                ; // Fall through to label ??Subroutine89_0

   \                                 In  segment BANKED_CODE, align 1, keep-with-next
   \                     ??Subroutine89_0:
   \   000000   A4           MUL       AB
   \   000001   2A           ADD       A,R2
   \   000002   F9           MOV       R1,A
   \   000003   74..         MOV       A,#funcList & 0xff
   \   000005   28           ADD       A,R0
   \   000006   22           RET

   \                                 In  segment BANKED_CODE, align 1, keep-with-next
   \                     ?Subroutine27:
   \   000000   90....       MOV       DPTR,#funcTableBuffer
   \   000003   E0           MOVX      A,@DPTR
   \   000004   28           ADD       A,R0
   \   000005   FC           MOV       R4,A
   \   000006   A3           INC       DPTR
   \   000007   E0           MOVX      A,@DPTR
   \   000008   39           ADDC      A,R1
   \   000009   8C82         MOV       DPL,R4
   \   00000B   F583         MOV       DPH,A
   \   00000D   A3           INC       DPTR
   \   00000E   A3           INC       DPTR
   \   00000F   22           RET

   \                                 In  segment BANKED_CODE, align 1, keep-with-next
   \                     ?Subroutine25:
   \   000000   90....       MOV       DPTR,#funcCount
   \   000003   E0           MOVX      A,@DPTR
   \   000004   F8           MOV       R0,A
   \   000005   C3           CLR       C
   \   000006   EE           MOV       A,R6
   \   000007   98           SUBB      A,R0
   \   000008   EF           MOV       A,R7
   \   000009   12....       LCALL     ?Subroutine71 & 0xFFFF
   \                     ??CrossCallReturnLabel_111:
   \   00000C   22           RET

   \                                 In  segment BANKED_CODE, align 1, keep-with-next
   \                     ?Subroutine8:
   \   000000   12....       LCALL     ?Subroutine61 & 0xFFFF
   \                     ??CrossCallReturnLabel_96:
   \   000003   A3           INC       DPTR
   \   000004   E0           MOVX      A,@DPTR
   \   000005   22           RET

   \                                 In  segment BANKED_CODE, align 1, keep-with-next
   \                     ?Subroutine61:
   \   000000   F0           MOVX      @DPTR,A
   \   000001   8A82         MOV       DPL,R2
   \   000003   8B83         MOV       DPH,R3
   \   000005   A3           INC       DPTR
   \   000006   A3           INC       DPTR
   \   000007   A3           INC       DPTR
   \   000008   A3           INC       DPTR
   \   000009   A3           INC       DPTR
   \   00000A   A3           INC       DPTR
   \   00000B   A3           INC       DPTR
   \   00000C   A3           INC       DPTR
   \   00000D   A3           INC       DPTR
   \   00000E   22           RET

   \                                 In  segment BANKED_CODE, align 1, keep-with-next
   \                     ?Subroutine23:
   \   000000   90....       MOV       DPTR,#funcTableBuffer
   \   000003   E0           MOVX      A,@DPTR
   \   000004   28           ADD       A,R0
   \   000005   FA           MOV       R2,A
   \   000006   A3           INC       DPTR
   \   000007   E0           MOVX      A,@DPTR
   \   000008   39           ADDC      A,R1
   \   000009   8A82         MOV       DPL,R2
   \   00000B   F583         MOV       DPH,A
   \   00000D   A3           INC       DPTR
   \   00000E   A3           INC       DPTR
   \   00000F   A3           INC       DPTR
   \   000010   A3           INC       DPTR
   \   000011   22           RET

   \                                 In  segment BANKED_CODE, align 1, keep-with-next
   \                     ?Subroutine22:
   \   000000   8A82         MOV       DPL,R2
   \   000002   8B83         MOV       DPH,R3
   \   000004   A3           INC       DPTR
   \   000005   A3           INC       DPTR
   \   000006   A3           INC       DPTR
   \   000007   A3           INC       DPTR
   \   000008   A3           INC       DPTR
   \   000009   A3           INC       DPTR
   \   00000A                REQUIRE ??Subroutine92_0
   \   00000A                ; // Fall through to label ??Subroutine92_0

   \                                 In  segment BANKED_CODE, align 1, keep-with-next
   \                     ??Subroutine92_0:
   \   000000   A3           INC       DPTR
   \   000001   E0           MOVX      A,@DPTR
   \   000002   F583         MOV       DPH,A
   \   000004   8882         MOV       DPL,R0
   \   000006   22           RET

   \                                 In  segment BANKED_CODE, align 1, keep-with-next
   \                     ?Subroutine71:
   \   000000   9400         SUBB      A,#0x0
   \   000002   A2D2         MOV       C,0xD0 /* PSW */.2
   \   000004   65D0         XRL       A,PSW
   \   000006   33           RLC       A
   \   000007   22           RET

   \                                 In  segment BANKED_CODE, align 1, keep-with-next
   \                     ??Subroutine94_0:
   \   000000   A3           INC       DPTR
   \   000001   A3           INC       DPTR
   \   000002                REQUIRE ??Subroutine95_0
   \   000002                ; // Fall through to label ??Subroutine95_0

   \                                 In  segment BANKED_CODE, align 1, keep-with-next
   \                     ??Subroutine95_0:
   \   000000   A3           INC       DPTR
   \   000001   A3           INC       DPTR
   \   000002                REQUIRE ??Subroutine96_0
   \   000002                ; // Fall through to label ??Subroutine96_0

   \                                 In  segment BANKED_CODE, align 1, keep-with-next
   \                     ??Subroutine96_0:
   \   000000   A3           INC       DPTR
   \   000001   A3           INC       DPTR
   \   000002                REQUIRE ??Subroutine97_0
   \   000002                ; // Fall through to label ??Subroutine97_0

   \                                 In  segment BANKED_CODE, align 1, keep-with-next
   \                     ?Subroutine52:
   \   000000   12....       LCALL     ?Subroutine74 & 0xFFFF
   \                     ??CrossCallReturnLabel_114:
   \   000003   22           RET

   \                                 In  segment BANKED_CODE, align 1, keep-with-next
   \                     ?Subroutine74:
   \   000000   12....       LCALL     `??UartTX_Send_String::?relay`; Banked call to: UartTX_Send_String
   \   000003                ; Setup parameters for call to function delayms
   \   000003                ; Setup parameters for call to function delayms
   \   000003                ; Setup parameters for call to function delayms
   \   000003                ; Setup parameters for call to function delayms
   \   000003                ; Setup parameters for call to function delayms
   \   000003                ; Setup parameters for call to function delayms
   \   000003                ; Setup parameters for call to function delayms
   \   000003                ; Setup parameters for call to function delayms
   \   000003   7964         MOV       R1,#0x64
   \   000005   12....       LCALL     `??delayms::?relay`; Banked call to: delayms
   \   000008   22           RET
    125          /*********************************************************************
    126           * LOCAL FUNCTIONS
    127           */
    128          

   \                                 In  segment BANKED_CODE, align 1, keep-with-next
    129          static void createEndPoint(struct ep_info_t *epInfo, uint8 *task_id, uint8 ep)
   \                     createEndPoint:
    130          {
   \   000000                REQUIRE ?V0
   \   000000                REQUIRE ?V1
   \   000000   74F6         MOV       A,#-0xa
   \   000002   12....       LCALL     ?BANKED_ENTER_XDATA
   \   000005                ; Saved register size: 10
   \   000005                ; Auto size: 0
   \   000005   E9           MOV       A,R1
   \   000006   FE           MOV       R6,A
    131              static cId_t commonClusterId = SAPP_PERIODIC_CLUSTERID;
    132              // Fill out the endpoint description.
    133              epInfo->task_id = *task_id;
   \   000007   8C82         MOV       DPL,R4
   \   000009   8D83         MOV       DPH,R5
   \   00000B   E0           MOVX      A,@DPTR
   \   00000C   C0E0         PUSH      A
   \   00000E   EA           MOV       A,R2
   \   00000F   240C         ADD       A,#0xc
   \   000011   F582         MOV       DPL,A
   \   000013   E4           CLR       A
   \   000014   3B           ADDC      A,R3
   \   000015   F583         MOV       DPH,A
   \   000017   D0E0         POP       A
   \   000019   F0           MOVX      @DPTR,A
    134              epInfo->ep = ep;
   \   00001A   EA           MOV       A,R2
   \   00001B   240B         ADD       A,#0xb
   \   00001D   F582         MOV       DPL,A
   \   00001F   E4           CLR       A
   \   000020   3B           ADDC      A,R3
   \   000021   F583         MOV       DPH,A
   \   000023   E9           MOV       A,R1
   \   000024   12....       LCALL     ?Subroutine8 & 0xFFFF
    135              epInfo->timerTick = epInfo->function.cycle;
   \                     ??CrossCallReturnLabel_1:
   \   000027   C0E0         PUSH      A
   \   000029   12....       LCALL     ?Subroutine59 & 0xFFFF
   \                     ??CrossCallReturnLabel_91:
   \   00002C   D0E0         POP       A
   \   00002E   F0           MOVX      @DPTR,A
    136              epInfo->userTimer = 0;
   \   00002F   12....       LCALL     ?Subroutine34 & 0xFFFF
    137          
    138              epInfo->simpleDesc.EndPoint = ep;
   \                     ??CrossCallReturnLabel_242:
   \   000032   EA           MOV       A,R2
   \   000033   2415         ADD       A,#0x15
   \   000035   F5..         MOV       ?V0,A
   \   000037   E4           CLR       A
   \   000038   3B           ADDC      A,R3
   \   000039   F5..         MOV       ?V1,A
   \   00003B   E9           MOV       A,R1
   \   00003C   85..82       MOV       DPL,?V0
   \   00003F   85..83       MOV       DPH,?V1
   \   000042   F0           MOVX      @DPTR,A
    139              epInfo->simpleDesc.AppProfId = SAPP_PROFID;
   \   000043   EA           MOV       A,R2
   \   000044   2416         ADD       A,#0x16
   \   000046   F582         MOV       DPL,A
   \   000048   E4           CLR       A
   \   000049   3B           ADDC      A,R3
   \   00004A   F583         MOV       DPH,A
   \   00004C   7408         MOV       A,#0x8
   \   00004E   F0           MOVX      @DPTR,A
   \   00004F   A3           INC       DPTR
   \   000050   740F         MOV       A,#0xf
   \   000052   F0           MOVX      @DPTR,A
    140              epInfo->simpleDesc.AppDeviceId = SAPP_DEVICEID;
   \   000053   EA           MOV       A,R2
   \   000054   2418         ADD       A,#0x18
   \   000056   12....       LCALL     ?Subroutine35 & 0xFFFF
   \                     ??CrossCallReturnLabel_49:
   \   000059   A3           INC       DPTR
   \   00005A   E4           CLR       A
   \   00005B   F0           MOVX      @DPTR,A
    141              epInfo->simpleDesc.AppDevVer = SAPP_DEVICE_VERSION;
    142              epInfo->simpleDesc.Reserved = 0;
   \   00005C   EA           MOV       A,R2
   \   00005D   241A         ADD       A,#0x1a
   \   00005F   12....       LCALL     ??Subroutine98_0 & 0xFFFF
    143              epInfo->simpleDesc.AppNumInClusters = 1;
   \                     ??CrossCallReturnLabel_240:
   \   000062   EA           MOV       A,R2
   \   000063   241B         ADD       A,#0x1b
   \   000065   12....       LCALL     ?Subroutine35 & 0xFFFF
    144              epInfo->simpleDesc.pAppInClusterList = &commonClusterId;
   \                     ??CrossCallReturnLabel_50:
   \   000068   EA           MOV       A,R2
   \   000069   241C         ADD       A,#0x1c
   \   00006B   12....       LCALL     ?Subroutine33 & 0xFFFF
    145              epInfo->simpleDesc.AppNumOutClusters = 1;
   \                     ??CrossCallReturnLabel_47:
   \   00006E   241E         ADD       A,#0x1e
   \   000070   12....       LCALL     ?Subroutine35 & 0xFFFF
    146              epInfo->simpleDesc.pAppOutClusterList = &commonClusterId;
   \                     ??CrossCallReturnLabel_51:
   \   000073   EA           MOV       A,R2
   \   000074   241F         ADD       A,#0x1f
   \   000076   12....       LCALL     ?Subroutine33 & 0xFFFF
    147          
    148              epInfo->SampleApp_epDesc.endPoint = ep;
   \                     ??CrossCallReturnLabel_48:
   \   000079   240F         ADD       A,#0xf
   \   00007B   F8           MOV       R0,A
   \   00007C   E4           CLR       A
   \   00007D   3B           ADDC      A,R3
   \   00007E   F9           MOV       R1,A
   \   00007F   EE           MOV       A,R6
   \   000080   8882         MOV       DPL,R0
   \   000082   8983         MOV       DPH,R1
   \   000084   F0           MOVX      @DPTR,A
    149              epInfo->SampleApp_epDesc.task_id = task_id;
   \   000085   EA           MOV       A,R2
   \   000086   2410         ADD       A,#0x10
   \   000088   F582         MOV       DPL,A
   \   00008A   E4           CLR       A
   \   00008B   3B           ADDC      A,R3
   \   00008C   F583         MOV       DPH,A
   \   00008E   EC           MOV       A,R4
   \   00008F   F0           MOVX      @DPTR,A
   \   000090   A3           INC       DPTR
   \   000091   ED           MOV       A,R5
   \   000092   F0           MOVX      @DPTR,A
    150              epInfo->SampleApp_epDesc.simpleDesc = &epInfo->simpleDesc;
   \   000093   EA           MOV       A,R2
   \   000094   2412         ADD       A,#0x12
   \   000096   F582         MOV       DPL,A
   \   000098   E4           CLR       A
   \   000099   3B           ADDC      A,R3
   \   00009A   F583         MOV       DPH,A
   \   00009C   E5..         MOV       A,?V0
   \   00009E   F0           MOVX      @DPTR,A
   \   00009F   A3           INC       DPTR
   \   0000A0   E5..         MOV       A,?V1
   \   0000A2   F0           MOVX      @DPTR,A
    151              epInfo->SampleApp_epDesc.latencyReq = noLatencyReqs;
   \   0000A3   EA           MOV       A,R2
   \   0000A4   2414         ADD       A,#0x14
   \   0000A6   12....       LCALL     ??Subroutine98_0 & 0xFFFF
    152          
    153              // Register the endpoint description with the AF
    154              afRegister(&epInfo->SampleApp_epDesc);
   \                     ??CrossCallReturnLabel_241:
   \   0000A9                ; Setup parameters for call to function afRegister
   \   0000A9   E8           MOV       A,R0
   \   0000AA   FA           MOV       R2,A
   \   0000AB   E9           MOV       A,R1
   \   0000AC   FB           MOV       R3,A
   \   0000AD   12....       LCALL     `??afRegister::?relay`; Banked call to: afRegister
    155          }
   \   0000B0   02....       LJMP      ?Subroutine0 & 0xFFFF

   \                                 In  segment BANKED_CODE, align 1, keep-with-next
   \                     ?Subroutine35:
   \   000000   F582         MOV       DPL,A
   \   000002   E4           CLR       A
   \   000003   3B           ADDC      A,R3
   \   000004   F583         MOV       DPH,A
   \   000006   7401         MOV       A,#0x1
   \   000008   F0           MOVX      @DPTR,A
   \   000009   22           RET

   \                                 In  segment BANKED_CODE, align 1, keep-with-next
   \                     ?Subroutine33:
   \   000000   F582         MOV       DPL,A
   \   000002   E4           CLR       A
   \   000003   3B           ADDC      A,R3
   \   000004   F583         MOV       DPH,A
   \   000006   74..         MOV       A,#??commonClusterId & 0xff
   \   000008   F0           MOVX      @DPTR,A
   \   000009   A3           INC       DPTR
   \   00000A   74..         MOV       A,#(??commonClusterId >> 8) & 0xff
   \   00000C   F0           MOVX      @DPTR,A
   \   00000D   EA           MOV       A,R2
   \   00000E   22           RET

   \                                 In  segment BANKED_CODE, align 1, keep-with-next
   \                     ?Subroutine34:
   \   000000   EA           MOV       A,R2
   \   000001   240E         ADD       A,#0xe
   \   000003                REQUIRE ??Subroutine98_0
   \   000003                ; // Fall through to label ??Subroutine98_0

   \                                 In  segment BANKED_CODE, align 1, keep-with-next
   \                     ??Subroutine98_0:
   \   000000   F582         MOV       DPL,A
   \   000002   E4           CLR       A
   \   000003   3B           ADDC      A,R3
   \   000004   F583         MOV       DPH,A
   \   000006   E4           CLR       A
   \   000007   F0           MOVX      @DPTR,A
   \   000008   22           RET

   \                                 In  segment BANKED_CODE, align 1, keep-with-next
   \                     ?Subroutine59:
   \   000000   EA           MOV       A,R2
   \   000001   240D         ADD       A,#0xd
   \   000003   F582         MOV       DPL,A
   \   000005   E4           CLR       A
   \   000006   3B           ADDC      A,R3
   \   000007   F583         MOV       DPH,A
   \   000009   22           RET

   \                                 In  segment XDATA_I, align 1, keep-with-next
   \                     ??commonClusterId:
   \   000000                DS 2
   \   000002                REQUIRE `?<Initializer for commonClusterId>`
   \   000002                REQUIRE __INIT_XDATA_I
    156          

   \                                 In  segment BANKED_CODE, align 1, keep-with-next
    157          uint16 sapp_controlEpProcess(uint8 task_id, uint16 events)
   \                     sapp_controlEpProcess:
    158          {
   \   000000                REQUIRE ?V0
   \   000000                REQUIRE ?V1
   \   000000                REQUIRE ?V2
   \   000000                REQUIRE ?V3
   \   000000                REQUIRE ?V4
   \   000000                REQUIRE ?V5
   \   000000   74F2         MOV       A,#-0xe
   \   000002   12....       LCALL     ?BANKED_ENTER_XDATA
   \   000005                ; Saved register size: 14
   \   000005                ; Auto size: 3
   \   000005   74FD         MOV       A,#-0x3
   \   000007   12....       LCALL     ?ALLOC_XSTACK8
   \   00000A   89..         MOV       ?V3,R1
   \   00000C   8A..         MOV       ?V4,R2
   \   00000E   8B..         MOV       ?V5,R3
    159              afIncomingMSGPacket_t *MSGpkt;
    160          
    161              if ( events & SYS_EVENT_MSG )
   \   000010   EB           MOV       A,R3
   \   000011   5480         ANL       A,#0x80
   \   000013   7003         JNZ       $+5
   \   000015   02....       LJMP      ??sapp_controlEpProcess_0 & 0xFFFF
    162              {
    163                  //HalLedBlink( HAL_LED_1, 2, 50, 90 );
    164                  MSGpkt = (afIncomingMSGPacket_t *)osal_msg_receive(task_id);
   \   000018                ; Setup parameters for call to function osal_msg_receive
   \   000018   02....       LJMP      ??sapp_controlEpProcess_1 & 0xFFFF
    165                  while ( MSGpkt )
    166                  {
    167                      //HalUARTWrite(0, &MSGpkt->hdr.event,1);
    168                      switch ( MSGpkt->hdr.event )
    169                      {
    170          #if defined(ZDO_COORDINATOR)
    171                      case CMD_SERIAL_MSG:
    172                          uartMsgProcesser((uint8 *)MSGpkt);
    173                          HalLedBlink( HAL_LED_1, 2, 50, 90 );
    174                          break;
    175          #endif
    176          
    177          #if ! defined(ZDO_COORDINATOR) && defined(RTR_NWK)
    178                      case CMD_SERIAL_MSG:
    179                          uartMsgProcesser1((uint8 *)MSGpkt);
    180                          HalLedBlink( HAL_LED_1, 2, 50, 90 );
    181                          break;
    182          #endif
    183                          // Received when a messages is received (OTA) for this endpoint
    184                      case AF_INCOMING_MSG_CMD:
    185                      {
    186                          // TODO: QueryProfile or QueryTopo
    187                          switch(MSGpkt->clusterId)
    188                          {
    189                          case SAPP_PERIODIC_CLUSTERID:
    190                              switch(MSGpkt->cmd.Data[0])
    191                              {
    192                              case 0x01:
    193                                  // CtrlQueryProfile
    194                                  // 
    195                                  SendData(CONTROL_ENDPOINT, funcTableBuffer->ft_data, MSGpkt->srcAddr.addr.shortAddr, MSGpkt->srcAddr.endPoint, sizeof(FUNCTABLE) + funcCount * sizeof(FUNCINFO));
    196                                  break;
    197                              case 0x02:
    198                                  // CtrlQueryTopo
    199                                  // 
    200                                  SendData(CONTROL_ENDPOINT, (unsigned char *)&topoBuffer, MSGpkt->srcAddr.addr.shortAddr, MSGpkt->srcAddr.endPoint, sizeof(TOPOINFO));
    201                                  break;
    202                              case 0x03:
    203                                  // CtrlQuerySpecialFunction
    204                                  // cmd.Data[0] = 3, cmd.Data[1] = funcCode, cmd.Data[2] = funcID
    205                                  {
    206                                      uint8 i;
    207                                      for(i = 0; i < funcTableBuffer->ft_count; i++)
    208                                      {
    209                                          if((funcTableBuffer->ft_list[i].type == MSGpkt->cmd.Data[1])
    210                                             && (funcTableBuffer->ft_list[i].id == MSGpkt->cmd.Data[2]))
    211                                          {
    212                                              // 0x03, EndPoint, rCycle
    213                                              uint8 specialFunc[3] = { 0x03, i + 1, funcTableBuffer->ft_list[i].cycle };
    214                                              SendData(CONTROL_ENDPOINT, specialFunc, MSGpkt->srcAddr.addr.shortAddr, MSGpkt->srcAddr.endPoint, sizeof(specialFunc));
    215                                              break;
    216                                          }
    217                                      }
    218                                  }
    219                                  break;
    220                              default:
    221                                  {
    222                                      int i;
    223                                      for(i = 0; i < funcCount; i++)
    224                                      {
    225                                          struct ep_info_t *ep = &funcList[i];
    226                                          if(ep->res_available)   (*ep->res_available)(ep, ResControlPkg, MSGpkt);
    227                                      }
    228                                  }
    229                                  break;
    230                              }
    231                              HalLedBlink( HAL_LED_2, 1, 50, 250 );
    232                              break;
    233                          }
    234                          break;
    235                      }
    236                      // Received whenever the device changes state in the network
    237                      case ZDO_STATE_CHANGE:
    238                      {
    239                          devStates_t st = (devStates_t)(MSGpkt->hdr.status);
   \                     ??sapp_controlEpProcess_2:
   \   00001B   A3           INC       DPTR
   \   00001C   E0           MOVX      A,@DPTR
   \   00001D   F8           MOV       R0,A
    240                          if ( (st == DEV_ZB_COORD)
    241                                  || (st == DEV_ROUTER)
    242                                  || (st == DEV_END_DEVICE) )
   \   00001E   7409         MOV       A,#0x9
   \   000020   68           XRL       A,R0
   \   000021   600D         JZ        ??sapp_controlEpProcess_3
   \   000023   7407         MOV       A,#0x7
   \   000025   68           XRL       A,R0
   \   000026   6008         JZ        ??sapp_controlEpProcess_3
   \   000028   7406         MOV       A,#0x6
   \   00002A   68           XRL       A,R0
   \   00002B   6003         JZ        $+5
   \   00002D   02....       LJMP      ??sapp_controlEpProcess_4 & 0xFFFF
    243                          {
    244          //                    topoBuffer->type = 0x02;
    245                              memcpy(topoBuffer.IEEE, NLME_GetExtAddr(), 8);
   \                     ??sapp_controlEpProcess_3:
   \   000030                ; Setup parameters for call to function NLME_GetExtAddr
   \   000030   12....       LCALL     `??NLME_GetExtAddr::?relay`; Banked call to: NLME_GetExtAddr
   \   000033   8A..         MOV       ?V0,R2
   \   000035   8B..         MOV       ?V1,R3
   \   000037   AC..         MOV       R4,?V0
   \   000039   AD..         MOV       R5,?V1
   \   00003B                ; Setup parameters for call to function memcpy
   \   00003B   75..08       MOV       ?V0,#0x8
   \   00003E   75..00       MOV       ?V1,#0x0
   \   000041   78..         MOV       R0,#?V0
   \   000043   12....       LCALL     ?PUSH_XSTACK_I_TWO
   \   000046   7A..         MOV       R2,#(topoBuffer + 1) & 0xff
   \   000048   7B..         MOV       R3,#((topoBuffer + 1) >> 8) & 0xff
   \   00004A   12....       LCALL     `??memcpy::?relay`; Banked call to: memcpy
   \   00004D   7402         MOV       A,#0x2
   \   00004F   12....       LCALL     ?DEALLOC_XSTACK8
    246          #if !defined(ZDO_COORDINATOR)
    247                              topoBuffer.PAddr = NLME_GetCoordShortAddr();
   \   000052                ; Setup parameters for call to function NLME_GetCoordShortAddr
   \   000052   12....       LCALL     `??NLME_GetCoordShortAddr::?relay`; Banked call to: NLME_GetCoordShortAddr
   \   000055   90....       MOV       DPTR,#topoBuffer + 9
   \   000058   12....       LCALL     ??Subroutine82_0 & 0xFFFF
    248          #else
    249                              topoBuffer.PAddr = 0xFFFF;
    250          #endif
    251                              osal_memcpy(&topoBuffer.panid, &_NIB.nwkPanId, sizeof(uint16));
   \                     ??CrossCallReturnLabel_140:
   \   00005B                ; Setup parameters for call to function osal_memcpy
   \   00005B   75....       MOV       ?V0,#(_NIB + 33) & 0xff
   \   00005E   75....       MOV       ?V1,#((_NIB + 33) >> 8) & 0xff
   \   000061   75..00       MOV       ?V2,#0x0
   \   000064   78..         MOV       R0,#?V0
   \   000066   12....       LCALL     ?PUSH_XSTACK_I_THREE
   \   000069   7C02         MOV       R4,#0x2
   \   00006B   7D00         MOV       R5,#0x0
   \   00006D   7A..         MOV       R2,#(topoBuffer + 11) & 0xff
   \   00006F   7B..         MOV       R3,#((topoBuffer + 11) >> 8) & 0xff
   \   000071   12....       LCALL     `??osal_memcpy::?relay`; Banked call to: osal_memcpy
   \   000074   7403         MOV       A,#0x3
   \   000076   12....       LCALL     ?DEALLOC_XSTACK8
    252                              osal_memcpy(&topoBuffer.channel, &_NIB.nwkLogicalChannel, sizeof(uint8));
   \   000079                ; Setup parameters for call to function osal_memcpy
   \   000079   75....       MOV       ?V0,#(_NIB + 22) & 0xff
   \   00007C   75....       MOV       ?V1,#((_NIB + 22) >> 8) & 0xff
   \   00007F   78..         MOV       R0,#?V0
   \   000081   12....       LCALL     ?PUSH_XSTACK_I_THREE
   \   000084   7C01         MOV       R4,#0x1
   \   000086   7D00         MOV       R5,#0x0
   \   000088   7A..         MOV       R2,#(topoBuffer + 13) & 0xff
   \   00008A   7B..         MOV       R3,#((topoBuffer + 13) >> 8) & 0xff
   \   00008C   12....       LCALL     `??osal_memcpy::?relay`; Banked call to: osal_memcpy
   \   00008F   7403         MOV       A,#0x3
   \   000091   12....       LCALL     ?DEALLOC_XSTACK8
    253                              //
    254                              SendData(CONTROL_ENDPOINT, (unsigned char *)&topoBuffer, 0x0000, TRANSFER_ENDPOINT, sizeof(TOPOINFO));
   \   000094                ; Setup parameters for call to function SendData
   \   000094   75..0E       MOV       ?V0,#0xe
   \   000097   78..         MOV       R0,#?V0
   \   000099   12....       LCALL     ?PUSH_XSTACK_I_ONE
   \   00009C   75..01       MOV       ?V0,#0x1
   \   00009F   78..         MOV       R0,#?V0
   \   0000A1   12....       LCALL     ?PUSH_XSTACK_I_ONE
   \   0000A4   7C00         MOV       R4,#0x0
   \   0000A6   7D00         MOV       R5,#0x0
   \   0000A8   7A..         MOV       R2,#topoBuffer & 0xff
   \   0000AA   7B..         MOV       R3,#(topoBuffer >> 8) & 0xff
   \   0000AC   79F0         MOV       R1,#-0x10
   \   0000AE   12....       LCALL     ??Subroutine86_0 & 0xFFFF
   \                     ??CrossCallReturnLabel_175:
   \   0000B1   12....       LCALL     ?DEALLOC_XSTACK8
    255                              HalLedBlink( HAL_LED_2, 4, 50, 250 );
   \   0000B4                ; Setup parameters for call to function HalLedBlink
   \   0000B4   7CFA         MOV       R4,#-0x6
   \   0000B6   7D00         MOV       R5,#0x0
   \   0000B8   7B32         MOV       R3,#0x32
   \   0000BA   7A04         MOV       R2,#0x4
   \                     ??sapp_controlEpProcess_5:
   \   0000BC   7902         MOV       R1,#0x2
   \                     ??sapp_controlEpProcess_6:
   \   0000BE   12....       LCALL     `??HalLedBlink::?relay`; Banked call to: HalLedBlink
    256                          }
    257                      }
    258                      break;
    259                      default:
    260                          break;
    261                      }
    262                      // Release the memory
    263                      osal_msg_deallocate( (uint8 *)MSGpkt );
   \                     ??sapp_controlEpProcess_4:
   \   0000C1                ; Setup parameters for call to function osal_msg_deallocate
   \   0000C1   EE           MOV       A,R6
   \   0000C2   FA           MOV       R2,A
   \   0000C3   EF           MOV       A,R7
   \   0000C4   FB           MOV       R3,A
   \   0000C5   12....       LCALL     `??osal_msg_deallocate::?relay`; Banked call to: osal_msg_deallocate
    264                      // Next - if one is available
    265                      MSGpkt = (afIncomingMSGPacket_t *)osal_msg_receive( task_id );
   \   0000C8                ; Setup parameters for call to function osal_msg_receive
   \   0000C8   A9..         MOV       R1,?V3
   \                     ??sapp_controlEpProcess_1:
   \   0000CA   12....       LCALL     `??osal_msg_receive::?relay`; Banked call to: osal_msg_receive
   \   0000CD   8A..         MOV       ?V0,R2
   \   0000CF   8B..         MOV       ?V1,R3
   \   0000D1   AE..         MOV       R6,?V0
   \   0000D3   AF..         MOV       R7,?V1
   \   0000D5   EE           MOV       A,R6
   \   0000D6   4F           ORL       A,R7
   \   0000D7   7003         JNZ       $+5
   \   0000D9   02....       LJMP      ??sapp_controlEpProcess_7 & 0xFFFF
   \   0000DC   8E82         MOV       DPL,R6
   \   0000DE   8F83         MOV       DPH,R7
   \   0000E0   E0           MOVX      A,@DPTR
   \   0000E1   14           DEC       A
   \   0000E2   6010         JZ        ??sapp_controlEpProcess_8
   \   0000E4   24E7         ADD       A,#-0x19
   \   0000E6   7003         JNZ       $+5
   \   0000E8   02....       LJMP      ??sapp_controlEpProcess_9 & 0xFFFF
   \   0000EB   2449         ADD       A,#0x49
   \   0000ED   7003         JNZ       $+5
   \   0000EF   02....       LJMP      ??sapp_controlEpProcess_2 & 0xFFFF
   \   0000F2   80CD         SJMP      ??sapp_controlEpProcess_4
   \                     ??sapp_controlEpProcess_8:
   \   0000F4   A3           INC       DPTR
   \   0000F5   A3           INC       DPTR
   \   0000F6   12....       LCALL     ??Subroutine91_0 & 0xFFFF
   \                     ??CrossCallReturnLabel_201:
   \   0000F9   7900         MOV       R1,#0x0
   \                     ??sapp_controlEpProcess_10:
   \   0000FB   E9           MOV       A,R1
   \   0000FC   FC           MOV       R4,A
   \   0000FD   12....       LCALL     ?Subroutine51 & 0xFFFF
   \                     ??CrossCallReturnLabel_79:
   \   000100   E0           MOVX      A,@DPTR
   \   000101   642B         XRL       A,#0x2b
   \   000103   7035         JNZ       ??sapp_controlEpProcess_11
   \   000105   12....       LCALL     ?Subroutine51 & 0xFFFF
   \                     ??CrossCallReturnLabel_80:
   \   000108   A3           INC       DPTR
   \   000109   A3           INC       DPTR
   \   00010A   A3           INC       DPTR
   \   00010B   A3           INC       DPTR
   \   00010C   E0           MOVX      A,@DPTR
   \   00010D   642C         XRL       A,#0x2c
   \   00010F   705D         JNZ       ??sapp_controlEpProcess_12
   \   000111   7800         MOV       R0,#0x0
   \                     ??sapp_controlEpProcess_13:
   \   000113   E9           MOV       A,R1
   \   000114   F5..         MOV       ?V0,A
   \   000116   E8           MOV       A,R0
   \   000117   FC           MOV       R4,A
   \   000118   E5..         MOV       A,?V0
   \   00011A   2C           ADD       A,R4
   \   00011B   FC           MOV       R4,A
   \   00011C   E4           CLR       A
   \   00011D   3400         ADDC      A,#0x0
   \   00011F   FD           MOV       R5,A
   \   000120   EA           MOV       A,R2
   \   000121   2C           ADD       A,R4
   \   000122   F582         MOV       DPL,A
   \   000124   EB           MOV       A,R3
   \   000125   3D           ADDC      A,R5
   \   000126   F583         MOV       DPH,A
   \   000128   A3           INC       DPTR
   \   000129   A3           INC       DPTR
   \   00012A   A3           INC       DPTR
   \   00012B   A3           INC       DPTR
   \   00012C   A3           INC       DPTR
   \   00012D   A3           INC       DPTR
   \   00012E   E0           MOVX      A,@DPTR
   \   00012F   642C         XRL       A,#0x2c
   \   000131   6010         JZ        ??sapp_controlEpProcess_14
   \   000133   08           INC       R0
   \   000134   E8           MOV       A,R0
   \   000135   C3           CLR       C
   \   000136   943C         SUBB      A,#0x3c
   \   000138   40D9         JC        ??sapp_controlEpProcess_13
   \                     ??sapp_controlEpProcess_11:
   \   00013A   09           INC       R1
   \   00013B   E9           MOV       A,R1
   \   00013C   C3           CLR       C
   \   00013D   941E         SUBB      A,#0x1e
   \   00013F   502D         JNC       ??sapp_controlEpProcess_12
   \   000141   80B8         SJMP      ??sapp_controlEpProcess_10
   \                     ??sapp_controlEpProcess_14:
   \   000143                ; Setup parameters for call to function SendData
   \   000143   7401         MOV       A,#0x1
   \   000145   28           ADD       A,R0
   \   000146   F5..         MOV       ?V0,A
   \   000148   78..         MOV       R0,#?V0
   \   00014A   12....       LCALL     ?PUSH_XSTACK_I_ONE
   \   00014D   75..01       MOV       ?V0,#0x1
   \   000150   78..         MOV       R0,#?V0
   \   000152   12....       LCALL     ?PUSH_XSTACK_I_ONE
   \   000155   7C00         MOV       R4,#0x0
   \   000157   7D00         MOV       R5,#0x0
   \   000159   E9           MOV       A,R1
   \   00015A   F8           MOV       R0,A
   \   00015B   EA           MOV       A,R2
   \   00015C   28           ADD       A,R0
   \   00015D   F8           MOV       R0,A
   \   00015E   E4           CLR       A
   \   00015F   3B           ADDC      A,R3
   \   000160   F9           MOV       R1,A
   \   000161   E8           MOV       A,R0
   \   000162   2406         ADD       A,#0x6
   \   000164   FA           MOV       R2,A
   \   000165   E4           CLR       A
   \   000166   39           ADDC      A,R1
   \   000167   FB           MOV       R3,A
   \   000168   12....       LCALL     ?Subroutine54 & 0xFFFF
   \                     ??CrossCallReturnLabel_174:
   \   00016B   12....       LCALL     ?DEALLOC_XSTACK8
   \                     ??sapp_controlEpProcess_12:
   \   00016E                ; Setup parameters for call to function HalLedBlink
   \   00016E   7C5A         MOV       R4,#0x5a
   \   000170   7D00         MOV       R5,#0x0
   \   000172   7B32         MOV       R3,#0x32
   \   000174   7A02         MOV       R2,#0x2
   \   000176   7901         MOV       R1,#0x1
   \   000178   02....       LJMP      ??sapp_controlEpProcess_6 & 0xFFFF
   \                     ??sapp_controlEpProcess_9:
   \   00017B   A3           INC       DPTR
   \   00017C   A3           INC       DPTR
   \   00017D   A3           INC       DPTR
   \   00017E   A3           INC       DPTR
   \   00017F   E0           MOVX      A,@DPTR
   \   000180   6401         XRL       A,#0x1
   \   000182   7002         JNZ       ??sapp_controlEpProcess_15
   \   000184   A3           INC       DPTR
   \   000185   E0           MOVX      A,@DPTR
   \                     ??sapp_controlEpProcess_15:
   \   000186   6003         JZ        $+5
   \   000188   02....       LJMP      ??sapp_controlEpProcess_4 & 0xFFFF
   \   00018B   12....       LCALL     ?Subroutine72 & 0xFFFF
   \                     ??CrossCallReturnLabel_112:
   \   00018E   F8           MOV       R0,A
   \   00018F   12....       LCALL     ??Subroutine92_0 & 0xFFFF
   \                     ??CrossCallReturnLabel_211:
   \   000192   E0           MOVX      A,@DPTR
   \   000193   14           DEC       A
   \   000194   6009         JZ        ??sapp_controlEpProcess_16
   \   000196   14           DEC       A
   \   000197   6029         JZ        ??sapp_controlEpProcess_17
   \   000199   14           DEC       A
   \   00019A   603E         JZ        ??sapp_controlEpProcess_18
   \   00019C   02....       LJMP      ??sapp_controlEpProcess_19 & 0xFFFF
   \                     ??sapp_controlEpProcess_16:
   \   00019F                ; Setup parameters for call to function SendData
   \   00019F   75F003       MOV       B,#0x3
   \   0001A2   90....       MOV       DPTR,#funcCount
   \   0001A5   E0           MOVX      A,@DPTR
   \   0001A6   A4           MUL       AB
   \   0001A7   2402         ADD       A,#0x2
   \   0001A9   F5..         MOV       ?V0,A
   \   0001AB   78..         MOV       R0,#?V0
   \   0001AD   12....       LCALL     ?PUSH_XSTACK_I_ONE
   \   0001B0   12....       LCALL     ?Subroutine13 & 0xFFFF
   \                     ??CrossCallReturnLabel_9:
   \   0001B3   12....       LCALL     ?PUSH_XSTACK_I_ONE
   \   0001B6   12....       LCALL     ?Subroutine26 & 0xFFFF
   \                     ??CrossCallReturnLabel_247:
   \   0001B9   90....       MOV       DPTR,#funcTableBuffer
   \   0001BC   12....       LCALL     ??Subroutine91_0 & 0xFFFF
   \                     ??CrossCallReturnLabel_202:
   \   0001BF   02....       LJMP      ??sapp_controlEpProcess_20 & 0xFFFF
   \                     ??sapp_controlEpProcess_17:
   \   0001C2                ; Setup parameters for call to function SendData
   \   0001C2   75..0E       MOV       ?V0,#0xe
   \   0001C5   78..         MOV       R0,#?V0
   \   0001C7   12....       LCALL     ?PUSH_XSTACK_I_ONE
   \   0001CA   12....       LCALL     ?Subroutine13 & 0xFFFF
   \                     ??CrossCallReturnLabel_10:
   \   0001CD   12....       LCALL     ?PUSH_XSTACK_I_ONE
   \   0001D0   12....       LCALL     ?Subroutine26 & 0xFFFF
   \                     ??CrossCallReturnLabel_248:
   \   0001D3   7A..         MOV       R2,#topoBuffer & 0xff
   \   0001D5   7B..         MOV       R3,#(topoBuffer >> 8) & 0xff
   \   0001D7   02....       LJMP      ??sapp_controlEpProcess_20 & 0xFFFF
   \                     ??sapp_controlEpProcess_18:
   \   0001DA   7A00         MOV       R2,#0x0
   \   0001DC   8001         SJMP      ??sapp_controlEpProcess_21
   \                     ??sapp_controlEpProcess_22:
   \   0001DE   0A           INC       R2
   \                     ??sapp_controlEpProcess_21:
   \   0001DF   90....       MOV       DPTR,#funcTableBuffer
   \   0001E2   E0           MOVX      A,@DPTR
   \   0001E3   F8           MOV       R0,A
   \   0001E4   12....       LCALL     ??Subroutine92_0 & 0xFFFF
   \                     ??CrossCallReturnLabel_212:
   \   0001E7   A3           INC       DPTR
   \   0001E8   E0           MOVX      A,@DPTR
   \   0001E9   F8           MOV       R0,A
   \   0001EA   EA           MOV       A,R2
   \   0001EB   C3           CLR       C
   \   0001EC   98           SUBB      A,R0
   \   0001ED   4003         JC        $+5
   \   0001EF   02....       LJMP      ??sapp_controlEpProcess_23 & 0xFFFF
   \   0001F2   EA           MOV       A,R2
   \   0001F3   75F003       MOV       B,#0x3
   \   0001F6   A4           MUL       AB
   \   0001F7   F8           MOV       R0,A
   \   0001F8   A9F0         MOV       R1,B
   \   0001FA   90....       MOV       DPTR,#funcTableBuffer
   \   0001FD   E0           MOVX      A,@DPTR
   \   0001FE   28           ADD       A,R0
   \   0001FF   FB           MOV       R3,A
   \   000200   A3           INC       DPTR
   \   000201   E0           MOVX      A,@DPTR
   \   000202   39           ADDC      A,R1
   \   000203   8B82         MOV       DPL,R3
   \   000205   F583         MOV       DPH,A
   \   000207   12....       LCALL     ?Subroutine14 & 0xFFFF
   \                     ??CrossCallReturnLabel_12:
   \   00020A   E0           MOVX      A,@DPTR
   \   00020B   68           XRL       A,R0
   \   00020C   70D0         JNZ       ??sapp_controlEpProcess_22
   \   00020E   EA           MOV       A,R2
   \   00020F   75F003       MOV       B,#0x3
   \   000212   A4           MUL       AB
   \   000213   F8           MOV       R0,A
   \   000214   A9F0         MOV       R1,B
   \   000216   90....       MOV       DPTR,#funcTableBuffer
   \   000219   E0           MOVX      A,@DPTR
   \   00021A   28           ADD       A,R0
   \   00021B   A3           INC       DPTR
   \   00021C   E0           MOVX      A,@DPTR
   \   00021D   39           ADDC      A,R1
   \   00021E   8B82         MOV       DPL,R3
   \   000220   F583         MOV       DPH,A
   \   000222   A3           INC       DPTR
   \   000223   12....       LCALL     ?Subroutine14 & 0xFFFF
   \                     ??CrossCallReturnLabel_13:
   \   000226   A3           INC       DPTR
   \   000227   E0           MOVX      A,@DPTR
   \   000228   68           XRL       A,R0
   \   000229   70B3         JNZ       ??sapp_controlEpProcess_22
   \   00022B   90....       MOV       DPTR,#`?<Constant {3, 0, 0}>`
   \   00022E   AC..         MOV       R4,?XSP + 0
   \   000230   AD..         MOV       R5,?XSP + 1
   \   000232   7403         MOV       A,#0x3
   \   000234   12....       LCALL     ?MOVE_LONG8_XDATA_XDATA
   \   000237   04           INC       A
   \   000238   2A           ADD       A,R2
   \   000239   C0E0         PUSH      A
   \   00023B   7401         MOV       A,#0x1
   \   00023D   12....       LCALL     ?XSTACK_DISP0_8
   \   000240   D0E0         POP       A
   \   000242   F0           MOVX      @DPTR,A
   \   000243   EA           MOV       A,R2
   \   000244   75F003       MOV       B,#0x3
   \   000247   A4           MUL       AB
   \   000248   F8           MOV       R0,A
   \   000249   A9F0         MOV       R1,B
   \   00024B   12....       LCALL     ?Subroutine23 & 0xFFFF
   \                     ??CrossCallReturnLabel_36:
   \   00024E   E0           MOVX      A,@DPTR
   \   00024F   C0E0         PUSH      A
   \   000251   7402         MOV       A,#0x2
   \   000253   12....       LCALL     ?XSTACK_DISP0_8
   \   000256   D0E0         POP       A
   \   000258   F0           MOVX      @DPTR,A
   \   000259                ; Setup parameters for call to function SendData
   \   000259   75..03       MOV       ?V0,#0x3
   \   00025C   78..         MOV       R0,#?V0
   \   00025E   12....       LCALL     ?PUSH_XSTACK_I_ONE
   \   000261   12....       LCALL     ?Subroutine13 & 0xFFFF
   \                     ??CrossCallReturnLabel_11:
   \   000264   12....       LCALL     ?PUSH_XSTACK_I_ONE
   \   000267   12....       LCALL     ?Subroutine26 & 0xFFFF
   \                     ??CrossCallReturnLabel_249:
   \   00026A   7402         MOV       A,#0x2
   \   00026C   12....       LCALL     ?XSTACK_DISP101_8
   \                     ??sapp_controlEpProcess_20:
   \   00026F   79F0         MOV       R1,#-0x10
   \   000271   12....       LCALL     ??Subroutine86_0 & 0xFFFF
   \                     ??CrossCallReturnLabel_176:
   \   000274   12....       LCALL     ?DEALLOC_XSTACK8
   \   000277   8029         SJMP      ??sapp_controlEpProcess_23
   \                     ??sapp_controlEpProcess_19:
   \   000279   75..00       MOV       ?V0,#0x0
   \   00027C   75..00       MOV       ?V1,#0x0
   \   00027F   801C         SJMP      ??sapp_controlEpProcess_24
   \                     ??sapp_controlEpProcess_25:
   \   000281   12....       LCALL     ?Subroutine55 & 0xFFFF
   \                     ??CrossCallReturnLabel_85:
   \   000284   12....       LCALL     ?Subroutine18 & 0xFFFF
   \                     ??CrossCallReturnLabel_223:
   \   000287   600C         JZ        ??sapp_controlEpProcess_26
   \   000289                ; Setup parameters for indirect call
   \   000289   EE           MOV       A,R6
   \   00028A   FC           MOV       R4,A
   \   00028B   EF           MOV       A,R7
   \   00028C   FD           MOV       R5,A
   \   00028D   7904         MOV       R1,#0x4
   \   00028F   12....       LCALL     ?Subroutine22 & 0xFFFF
   \                     ??CrossCallReturnLabel_218:
   \   000292   12....       LCALL     ?CALL_IND
   \                     ??sapp_controlEpProcess_26:
   \   000295   05..         INC       ?V0
   \   000297   E5..         MOV       A,?V0
   \   000299   7002         JNZ       ??sapp_controlEpProcess_24
   \   00029B   05..         INC       ?V1
   \                     ??sapp_controlEpProcess_24:
   \   00029D   12....       LCALL     ?Subroutine21 & 0xFFFF
   \                     ??CrossCallReturnLabel_32:
   \   0002A0   40DF         JC        ??sapp_controlEpProcess_25
   \                     ??sapp_controlEpProcess_23:
   \   0002A2                ; Setup parameters for call to function HalLedBlink
   \   0002A2   7CFA         MOV       R4,#-0x6
   \   0002A4   7D00         MOV       R5,#0x0
   \   0002A6   7B32         MOV       R3,#0x32
   \   0002A8   7A01         MOV       R2,#0x1
   \   0002AA   02....       LJMP      ??sapp_controlEpProcess_5 & 0xFFFF
    266                  }
    267                  // return unprocessed events
    268                  return (events ^ SYS_EVENT_MSG);
   \                     ??sapp_controlEpProcess_7:
   \   0002AD   AA..         MOV       R2,?V4
   \   0002AF   E5..         MOV       A,?V5
   \   0002B1   6480         XRL       A,#0x80
   \   0002B3   FB           MOV       R3,A
   \   0002B4   807F         SJMP      ??sapp_controlEpProcess_27
    269              }
    270              // , userTimer
    271              if(events & SAPP_SEND_PERIODIC_MSG_EVT)
   \                     ??sapp_controlEpProcess_0:
   \   0002B6   EA           MOV       A,R2
   \   0002B7   A2E0         MOV       C,0xE0 /* A   */.0
   \   0002B9   5076         JNC       ??sapp_controlEpProcess_28
    272              {
    273                  int i;
    274                  uint8 hasUserTimer = 0;
   \   0002BB   7E00         MOV       R6,#0x0
    275                  for(i = 0; i < funcCount; i++)
   \   0002BD   8E..         MOV       ?V0,R6
   \   0002BF   8E..         MOV       ?V1,R6
   \   0002C1   803F         SJMP      ??sapp_controlEpProcess_29
    276                  {
    277                      struct ep_info_t *ep = &funcList[i];
   \                     ??sapp_controlEpProcess_30:
   \   0002C3   12....       LCALL     ?Subroutine55 & 0xFFFF
   \                     ??CrossCallReturnLabel_86:
   \   0002C6   39           ADDC      A,R1
   \   0002C7   FB           MOV       R3,A
    278                      if(ep->userTimer && ep->res_available)
   \   0002C8   12....       LCALL     ?Subroutine57 & 0xFFFF
   \                     ??CrossCallReturnLabel_87:
   \   0002CB   602D         JZ        ??sapp_controlEpProcess_31
   \   0002CD   8A82         MOV       DPL,R2
   \   0002CF   8B83         MOV       DPH,R3
   \   0002D1   12....       LCALL     ??Subroutine94_0 & 0xFFFF
   \                     ??CrossCallReturnLabel_234:
   \   0002D4   6024         JZ        ??sapp_controlEpProcess_31
    279                      {
    280                          hasUserTimer = 1;
   \   0002D6   7E01         MOV       R6,#0x1
    281                          ep->userTimer = ep->userTimer - 1;
   \   0002D8   12....       LCALL     ?Subroutine57 & 0xFFFF
   \                     ??CrossCallReturnLabel_88:
   \   0002DB   14           DEC       A
   \   0002DC   F0           MOVX      @DPTR,A
    282                          if(ep->userTimer <= 1)
   \   0002DD   C3           CLR       C
   \   0002DE   9402         SUBB      A,#0x2
   \   0002E0   5018         JNC       ??sapp_controlEpProcess_31
    283                          {
    284                              ep->userTimer = 0;
   \   0002E2   E4           CLR       A
   \   0002E3   F0           MOVX      @DPTR,A
    285                              (*ep->res_available)(ep, ResUserTimer, NULL);
   \   0002E4                ; Setup parameters for indirect call
   \   0002E4   FC           MOV       R4,A
   \   0002E5   FD           MOV       R5,A
   \   0002E6   7903         MOV       R1,#0x3
   \   0002E8   8A82         MOV       DPL,R2
   \   0002EA   8B83         MOV       DPH,R3
   \   0002EC   A3           INC       DPTR
   \   0002ED   A3           INC       DPTR
   \   0002EE   A3           INC       DPTR
   \   0002EF   A3           INC       DPTR
   \   0002F0   A3           INC       DPTR
   \   0002F1   A3           INC       DPTR
   \   0002F2   E0           MOVX      A,@DPTR
   \   0002F3   F8           MOV       R0,A
   \   0002F4   12....       LCALL     ??Subroutine92_0 & 0xFFFF
    286                          }
    287                      }
    288                  }
   \                     ??CrossCallReturnLabel_213:
   \   0002F7   12....       LCALL     ?CALL_IND
   \                     ??sapp_controlEpProcess_31:
   \   0002FA   05..         INC       ?V0
   \   0002FC   E5..         MOV       A,?V0
   \   0002FE   7002         JNZ       ??sapp_controlEpProcess_29
   \   000300   05..         INC       ?V1
   \                     ??sapp_controlEpProcess_29:
   \   000302   12....       LCALL     ?Subroutine21 & 0xFFFF
   \                     ??CrossCallReturnLabel_33:
   \   000305   40BC         JC        ??sapp_controlEpProcess_30
    289                  if(hasUserTimer)
   \   000307   EE           MOV       A,R6
   \   000308   A2E0         MOV       C,0xE0 /* A   */.0
   \   00030A   500F         JNC       ??sapp_controlEpProcess_32
    290                  {
    291                      // 
    292                      osal_start_timerEx(task_id, SAPP_SEND_PERIODIC_MSG_EVT, 1000);
   \   00030C                ; Setup parameters for call to function osal_start_timerEx
   \   00030C   7CE8         MOV       R4,#-0x18
   \   00030E   7D03         MOV       R5,#0x3
   \   000310   7A01         MOV       R2,#0x1
   \   000312   7B00         MOV       R3,#0x0
   \   000314   A9..         MOV       R1,?V3
   \   000316   12....       LCALL     `??osal_start_timerEx::?relay`; Banked call to: osal_start_timerEx
   \   000319   800D         SJMP      ??sapp_controlEpProcess_33
    293                  }
    294                  else
    295                  {
    296                      isUserTimerRunning = 0;
   \                     ??sapp_controlEpProcess_32:
   \   00031B   90....       MOV       DPTR,#isUserTimerRunning
   \   00031E   E4           CLR       A
   \   00031F   F0           MOVX      @DPTR,A
    297                      osal_stop_timerEx(task_id, SAPP_SEND_PERIODIC_MSG_EVT);
   \   000320                ; Setup parameters for call to function osal_stop_timerEx
   \   000320   7A01         MOV       R2,#0x1
   \   000322   FB           MOV       R3,A
   \   000323   A9..         MOV       R1,?V3
   \   000325   12....       LCALL     `??osal_stop_timerEx::?relay`; Banked call to: osal_stop_timerEx
    298                  }
    299                  // return unprocessed events
    300                  return (events ^ SAPP_SEND_PERIODIC_MSG_EVT);
   \                     ??sapp_controlEpProcess_33:
   \   000328   E5..         MOV       A,?V4
   \   00032A   6401         XRL       A,#0x1
   \   00032C   FA           MOV       R2,A
   \   00032D   AB..         MOV       R3,?V5
   \   00032F   8004         SJMP      ??sapp_controlEpProcess_27
    301              }
    302              // Discard unknown events
    303              return 0;
   \                     ??sapp_controlEpProcess_28:
   \   000331   7A00         MOV       R2,#0x0
   \   000333   7B00         MOV       R3,#0x0
   \                     ??sapp_controlEpProcess_27:
   \   000335   7403         MOV       A,#0x3
   \   000337                REQUIRE ?Subroutine3
   \   000337                ; // Fall through to label ?Subroutine3
    304          }

   \                                 In  segment BANKED_CODE, align 1, keep-with-next
   \                     ?Subroutine57:
   \   000000   12....       LCALL     ?Subroutine75 & 0xFFFF
   \                     ??CrossCallReturnLabel_118:
   \   000003   E0           MOVX      A,@DPTR
   \   000004   22           RET

   \                                 In  segment BANKED_CODE, align 1, keep-with-next
   \                     ?Subroutine55:
   \   000000   E5..         MOV       A,?V0
   \   000002   75F021       MOV       B,#0x21
   \   000005   A4           MUL       AB
   \   000006   F8           MOV       R0,A
   \   000007   AAF0         MOV       R2,B
   \   000009   75F021       MOV       B,#0x21
   \   00000C   E5..         MOV       A,?V1
   \   00000E   A4           MUL       AB
   \   00000F   2A           ADD       A,R2
   \   000010   F9           MOV       R1,A
   \   000011   74..         MOV       A,#funcList & 0xff
   \   000013   28           ADD       A,R0
   \   000014   FA           MOV       R2,A
   \   000015   74..         MOV       A,#(funcList >> 8) & 0xff
   \   000017   22           RET

   \                                 In  segment BANKED_CODE, align 1, keep-with-next
   \                     ?Subroutine14:
   \   000000   A3           INC       DPTR
   \   000001   A3           INC       DPTR
   \   000002   E0           MOVX      A,@DPTR
   \   000003   F8           MOV       R0,A
   \   000004   12....       LCALL     ?Subroutine72 & 0xFFFF
   \                     ??CrossCallReturnLabel_113:
   \   000007   F9           MOV       R1,A
   \   000008   A3           INC       DPTR
   \   000009   E0           MOVX      A,@DPTR
   \   00000A   F583         MOV       DPH,A
   \   00000C   8982         MOV       DPL,R1
   \   00000E   A3           INC       DPTR
   \   00000F   22           RET

   \                                 In  segment BANKED_CODE, align 1, keep-with-next
   \                     ?Subroutine72:
   \   000000   EE           MOV       A,R6
   \   000001   2422         ADD       A,#0x22
   \   000003   F582         MOV       DPL,A
   \   000005   E4           CLR       A
   \   000006   3F           ADDC      A,R7
   \   000007   F583         MOV       DPH,A
   \   000009   E0           MOVX      A,@DPTR
   \   00000A   22           RET

   \                                 In  segment BANKED_CODE, align 1, keep-with-next
   \                     ?Subroutine13:
   \   000000   EE           MOV       A,R6
   \   000001   240F         ADD       A,#0xf
   \   000003   F582         MOV       DPL,A
   \   000005   E4           CLR       A
   \   000006   3F           ADDC      A,R7
   \   000007   F583         MOV       DPH,A
   \   000009   E0           MOVX      A,@DPTR
   \   00000A   F5..         MOV       ?V0,A
   \   00000C   78..         MOV       R0,#?V0
   \   00000E   22           RET

   \                                 In  segment BANKED_CODE, align 1, keep-with-next
   \                     ?Subroutine21:
   \   000000   90....       MOV       DPTR,#funcCount
   \   000003   E0           MOVX      A,@DPTR
   \   000004   F8           MOV       R0,A
   \   000005   C3           CLR       C
   \   000006   E5..         MOV       A,?V0
   \   000008   98           SUBB      A,R0
   \   000009   E5..         MOV       A,?V1
   \   00000B   12....       LCALL     ?Subroutine71 & 0xFFFF
   \                     ??CrossCallReturnLabel_110:
   \   00000E   22           RET

   \                                 In  segment BANKED_CODE, align 1, keep-with-next
   \                     ?Subroutine18:
   \   000000   39           ADDC      A,R1
   \   000001   FB           MOV       R3,A
   \   000002   8A82         MOV       DPL,R2
   \   000004   F583         MOV       DPH,A
   \   000006                REQUIRE ??Subroutine94_0
   \   000006                ; // Fall through to label ??Subroutine94_0

   \                                 In  segment BANKED_CODE, align 1, keep-with-next
   \                     ?Subroutine75:
   \   000000   EA           MOV       A,R2
   \   000001   240E         ADD       A,#0xe
   \   000003   F582         MOV       DPL,A
   \   000005   E4           CLR       A
   \   000006   3B           ADDC      A,R3
   \   000007   F583         MOV       DPH,A
   \   000009   22           RET

   \                                 In  segment BANKED_CODE, align 1, keep-with-next
   \                     ?Subroutine26:
   \   000000   8E82         MOV       DPL,R6
   \   000002   8F83         MOV       DPH,R7
   \   000004                REQUIRE ??Subroutine99_0
   \   000004                ; // Fall through to label ??Subroutine99_0

   \                                 In  segment BANKED_CODE, align 1, keep-with-next
   \                     ??Subroutine99_0:
   \   000000   A3           INC       DPTR
   \   000001   A3           INC       DPTR
   \   000002                REQUIRE ??Subroutine100_0
   \   000002                ; // Fall through to label ??Subroutine100_0

   \                                 In  segment BANKED_CODE, align 1, keep-with-next
   \                     ??Subroutine100_0:
   \   000000   A3           INC       DPTR
   \   000001                REQUIRE ??Subroutine101_0
   \   000001                ; // Fall through to label ??Subroutine101_0

   \                                 In  segment BANKED_CODE, align 1, keep-with-next
   \                     ??Subroutine101_0:
   \   000000   A3           INC       DPTR
   \   000001   A3           INC       DPTR
   \   000002   A3           INC       DPTR
   \   000003   E0           MOVX      A,@DPTR
   \   000004   FC           MOV       R4,A
   \   000005   A3           INC       DPTR
   \   000006   E0           MOVX      A,@DPTR
   \   000007   FD           MOV       R5,A
   \   000008   22           RET

   \                                 In  segment XDATA_ROM_C, align 1
   \                     `?<Constant {3, 0, 0}>`:
   \   000000   03           DB 3
   \   000001   00           DB 0
   \   000002   00           DB 0
    305          

   \                                 In  segment BANKED_CODE, align 1, keep-with-next
    306          uint16 sapp_functionEpProcess(uint8 task_id, uint16 events)
   \                     sapp_functionEpProcess:
    307          {
   \   000000                REQUIRE ?V0
   \   000000                REQUIRE ?V1
   \   000000                REQUIRE ?V2
   \   000000                REQUIRE ?V3
   \   000000                REQUIRE ?V4
   \   000000                REQUIRE ?V5
   \   000000                REQUIRE ?V6
   \   000000                REQUIRE ?V7
   \   000000   74F0         MOV       A,#-0x10
   \   000002   12....       LCALL     ?BANKED_ENTER_XDATA
   \   000005                ; Saved register size: 16
   \   000005                ; Auto size: 1
   \   000005   74FF         MOV       A,#-0x1
   \   000007   12....       LCALL     ?ALLOC_XSTACK8
   \   00000A   E9           MOV       A,R1
   \   00000B   85..82       MOV       DPL,?XSP + 0
   \   00000E   85..83       MOV       DPH,?XSP + 1
   \   000011   F0           MOVX      @DPTR,A
   \   000012   8A..         MOV       ?V6,R2
   \   000014   8B..         MOV       ?V7,R3
    308              afIncomingMSGPacket_t *MSGpkt;
    309              if(events & SYS_EVENT_MSG)
   \   000016   EB           MOV       A,R3
   \   000017   5480         ANL       A,#0x80
   \   000019   7003         JNZ       $+5
   \   00001B   02....       LJMP      ??sapp_functionEpProcess_0 & 0xFFFF
    310              {
    311                  MSGpkt = (afIncomingMSGPacket_t *)osal_msg_receive( task_id );
   \   00001E                ; Setup parameters for call to function osal_msg_receive
   \   00001E   8037         SJMP      ??sapp_functionEpProcess_1
    312                  while ( MSGpkt )
    313                  {
    314                      switch ( MSGpkt->hdr.event )
    315                      {
    316                      // 
    317                      case AF_INCOMING_MSG_CMD:
    318                          {
    319                              switch ( MSGpkt->clusterId )
    320                              {
    321                              case SAPP_PERIODIC_CLUSTERID:
    322                                  if(MSGpkt->endPoint <= funcCount)
    323                                  {
    324                                      struct ep_info_t *ep = &funcList[MSGpkt->endPoint - 1];
    325                                      if(ep->incoming_data)
    326                                          (*ep->incoming_data)(ep, MSGpkt->srcAddr.addr.shortAddr, MSGpkt->srcAddr.endPoint, &MSGpkt->cmd);
    327                                      HalLedBlink( HAL_LED_2, 1, 50, 250 );
    328                                  }
    329                                  
    330                                  break;
    331                              }
    332                          }
    333                          break;
    334          
    335                      case ZDO_STATE_CHANGE:
    336                          {
    337                              curNwkState = (devStates_t)(MSGpkt->hdr.status);
    338                              if ( (curNwkState == DEV_ZB_COORD)
    339                                      || (curNwkState == DEV_ROUTER)
    340                                      || (curNwkState == DEV_END_DEVICE) )
    341                              {
    342                                  int i;
    343                                  int hasTimeOut = 0;
    344                                  for(i = 0; i < funcCount; i++)
    345                                  {
    346                                      struct ep_info_t *ep = &funcList[i];
    347                                      if(ep->nwk_stat_change)
    348                                          (*ep->nwk_stat_change)(ep);
    349                                      // 
    350                                      if(ep->time_out && ep->function.cycle)
    351                                      {
    352                                          ep->timerTick = ep->function.cycle;
    353                                          hasTimeOut = 1;
    354                                      }
    355                                  }
    356                                  if(hasTimeOut)
    357                                  {
    358                                      // ,,
    359                                      osal_start_timerEx(task_id,
    360                                                         SAPP_SEND_PERIODIC_MSG_EVT,
    361                                                         1000);
    362                                  }
    363                              }
    364                              else
    365                                  osal_stop_timerEx(task_id, SAPP_SEND_PERIODIC_MSG_EVT);
    366                          }
    367                          break;
    368                      case IOPORT_INT_EVENT:
    369                        {
    370                          OSALIOIntData_t* IOIntData;
    371                          IOIntData =(OSALIOIntData_t*)MSGpkt;
    372                          if(IOIntData->endPoint <= funcCount)
   \                     ??sapp_functionEpProcess_2:
   \   000020   A3           INC       DPTR
   \   000021   A3           INC       DPTR
   \   000022   12....       LCALL     ?Subroutine31 & 0xFFFF
   \                     ??CrossCallReturnLabel_45:
   \   000025   4021         JC        ??sapp_functionEpProcess_3
    373                          {
    374                              struct ep_info_t *ep = &funcList[IOIntData->endPoint - 1];
   \   000027   85..82       MOV       DPL,?V0
   \   00002A   85..83       MOV       DPH,?V1
   \   00002D   A3           INC       DPTR
   \   00002E   A3           INC       DPTR
   \   00002F   12....       LCALL     ?Subroutine24 & 0xFFFF
   \                     ??CrossCallReturnLabel_37:
   \   000032   12....       LCALL     ?Subroutine18 & 0xFFFF
    375                              if(ep->res_available)
   \                     ??CrossCallReturnLabel_224:
   \   000035   6011         JZ        ??sapp_functionEpProcess_3
    376                                  (*ep->res_available)(ep, ResIOInt, IOIntData->arg);
   \   000037                ; Setup parameters for indirect call
   \   000037   85..82       MOV       DPL,?V0
   \   00003A   85..83       MOV       DPH,?V1
   \   00003D   12....       LCALL     ??Subroutine101_0 & 0xFFFF
    377                          }
    378                        }
   \                     ??CrossCallReturnLabel_244:
   \   000040   7905         MOV       R1,#0x5
   \   000042   12....       LCALL     ?Subroutine22 & 0xFFFF
   \                     ??CrossCallReturnLabel_219:
   \   000045   12....       LCALL     ?CALL_IND
    379                        break;
    380          #if defined(HAL_IRDEC) && (HAL_IRDEC == TRUE)
    381                      case IRDEC_INT_EVENT:   //
    382                        {
    383                          OSALIRDecIntData_t* TimerIntData = (OSALIRDecIntData_t*)MSGpkt;
    384                          if(TimerIntData->endPoint <= funcCount)
    385                          {
    386                              struct ep_info_t *ep = &funcList[TimerIntData->endPoint - 1];
    387                              if(ep->res_available)
    388                                  (*ep->res_available)(ep, ResTimerInt, TimerIntData->data);
    389                          }
    390                        }
    391                        break;
    392          #endif
    393                      default:
    394                          break;
    395                      }
    396                      // Release the memory
    397                      osal_msg_deallocate( (uint8 *)MSGpkt );
   \                     ??sapp_functionEpProcess_3:
   \   000048                ; Setup parameters for call to function osal_msg_deallocate
   \   000048   AA..         MOV       R2,?V0
   \   00004A   AB..         MOV       R3,?V1
   \   00004C   12....       LCALL     `??osal_msg_deallocate::?relay`; Banked call to: osal_msg_deallocate
    398                      // Next - if one is available
    399                      MSGpkt = (afIncomingMSGPacket_t *)osal_msg_receive( task_id );
   \   00004F                ; Setup parameters for call to function osal_msg_receive
   \   00004F   85..82       MOV       DPL,?XSP + 0
   \   000052   85..83       MOV       DPH,?XSP + 1
   \   000055   E0           MOVX      A,@DPTR
   \   000056   F9           MOV       R1,A
   \                     ??sapp_functionEpProcess_1:
   \   000057   12....       LCALL     `??osal_msg_receive::?relay`; Banked call to: osal_msg_receive
   \   00005A   8A..         MOV       ?V0,R2
   \   00005C   8B..         MOV       ?V1,R3
   \   00005E   E5..         MOV       A,?V0
   \   000060   45..         ORL       A,?V1
   \   000062   7003         JNZ       $+5
   \   000064   02....       LJMP      ??sapp_functionEpProcess_4 & 0xFFFF
   \   000067   85..82       MOV       DPL,?V0
   \   00006A   85..83       MOV       DPH,?V1
   \   00006D   E0           MOVX      A,@DPTR
   \   00006E   24E6         ADD       A,#-0x1a
   \   000070   600A         JZ        ??sapp_functionEpProcess_5
   \   000072   2449         ADD       A,#0x49
   \   000074   6075         JZ        ??sapp_functionEpProcess_6
   \   000076   24E1         ADD       A,#-0x1f
   \   000078   60A6         JZ        ??sapp_functionEpProcess_2
   \   00007A   80CC         SJMP      ??sapp_functionEpProcess_3
   \                     ??sapp_functionEpProcess_5:
   \   00007C   A3           INC       DPTR
   \   00007D   A3           INC       DPTR
   \   00007E   A3           INC       DPTR
   \   00007F   A3           INC       DPTR
   \   000080   E0           MOVX      A,@DPTR
   \   000081   6401         XRL       A,#0x1
   \   000083   7002         JNZ       ??sapp_functionEpProcess_7
   \   000085   A3           INC       DPTR
   \   000086   E0           MOVX      A,@DPTR
   \                     ??sapp_functionEpProcess_7:
   \   000087   70BF         JNZ       ??sapp_functionEpProcess_3
   \   000089   12....       LCALL     ?Subroutine58 & 0xFFFF
   \                     ??CrossCallReturnLabel_89:
   \   00008C   12....       LCALL     ?Subroutine31 & 0xFFFF
   \                     ??CrossCallReturnLabel_46:
   \   00008F   40B7         JC        ??sapp_functionEpProcess_3
   \   000091   12....       LCALL     ?Subroutine58 & 0xFFFF
   \                     ??CrossCallReturnLabel_90:
   \   000094   12....       LCALL     ?Subroutine24 & 0xFFFF
   \                     ??CrossCallReturnLabel_38:
   \   000097   39           ADDC      A,R1
   \   000098   FB           MOV       R3,A
   \   000099   8A82         MOV       DPL,R2
   \   00009B   F583         MOV       DPH,A
   \   00009D   12....       LCALL     ??Subroutine96_0 & 0xFFFF
   \                     ??CrossCallReturnLabel_230:
   \   0000A0   6039         JZ        ??sapp_functionEpProcess_8
   \   0000A2                ; Setup parameters for indirect call
   \   0000A2   E5..         MOV       A,?V0
   \   0000A4   241F         ADD       A,#0x1f
   \   0000A6   F5..         MOV       ?V2,A
   \   0000A8   E4           CLR       A
   \   0000A9   35..         ADDC      A,?V1
   \   0000AB   F5..         MOV       ?V3,A
   \   0000AD   78..         MOV       R0,#?V2
   \   0000AF   12....       LCALL     ?PUSH_XSTACK_I_TWO
   \   0000B2   E5..         MOV       A,?V0
   \   0000B4   240F         ADD       A,#0xf
   \   0000B6   F582         MOV       DPL,A
   \   0000B8   E4           CLR       A
   \   0000B9   35..         ADDC      A,?V1
   \   0000BB   F583         MOV       DPH,A
   \   0000BD   E0           MOVX      A,@DPTR
   \   0000BE   F9           MOV       R1,A
   \   0000BF   85..82       MOV       DPL,?V0
   \   0000C2   85..83       MOV       DPH,?V1
   \   0000C5   12....       LCALL     ??Subroutine99_0 & 0xFFFF
   \                     ??CrossCallReturnLabel_246:
   \   0000C8   8A82         MOV       DPL,R2
   \   0000CA   8B83         MOV       DPH,R3
   \   0000CC   A3           INC       DPTR
   \   0000CD   A3           INC       DPTR
   \   0000CE   E0           MOVX      A,@DPTR
   \   0000CF   F8           MOV       R0,A
   \   0000D0   12....       LCALL     ??Subroutine92_0 & 0xFFFF
   \                     ??CrossCallReturnLabel_214:
   \   0000D3   12....       LCALL     ?CALL_IND
   \   0000D6   7402         MOV       A,#0x2
   \   0000D8   12....       LCALL     ?DEALLOC_XSTACK8
   \                     ??sapp_functionEpProcess_8:
   \   0000DB                ; Setup parameters for call to function HalLedBlink
   \   0000DB   7CFA         MOV       R4,#-0x6
   \   0000DD   7D00         MOV       R5,#0x0
   \   0000DF   7B32         MOV       R3,#0x32
   \   0000E1   7A01         MOV       R2,#0x1
   \   0000E3   7902         MOV       R1,#0x2
   \   0000E5   12....       LCALL     `??HalLedBlink::?relay`; Banked call to: HalLedBlink
   \   0000E8   02....       LJMP      ??sapp_functionEpProcess_3 & 0xFFFF
   \                     ??sapp_functionEpProcess_6:
   \   0000EB   A3           INC       DPTR
   \   0000EC   E0           MOVX      A,@DPTR
   \   0000ED   90....       MOV       DPTR,#curNwkState
   \   0000F0   F0           MOVX      @DPTR,A
   \   0000F1   6409         XRL       A,#0x9
   \   0000F3   600D         JZ        ??sapp_functionEpProcess_9
   \   0000F5   E0           MOVX      A,@DPTR
   \   0000F6   6407         XRL       A,#0x7
   \   0000F8   6008         JZ        ??sapp_functionEpProcess_9
   \   0000FA   E0           MOVX      A,@DPTR
   \   0000FB   6406         XRL       A,#0x6
   \   0000FD   6003         JZ        $+5
   \   0000FF   02....       LJMP      ??sapp_functionEpProcess_10 & 0xFFFF
   \                     ??sapp_functionEpProcess_9:
   \   000102   7E00         MOV       R6,#0x0
   \   000104   8E..         MOV       ?V4,R6
   \   000106   8E..         MOV       ?V5,R6
   \   000108   8068         SJMP      ??sapp_functionEpProcess_11
   \                     ??sapp_functionEpProcess_12:
   \   00010A   E5..         MOV       A,?V4
   \   00010C   75F021       MOV       B,#0x21
   \   00010F   A4           MUL       AB
   \   000110   F8           MOV       R0,A
   \   000111   AAF0         MOV       R2,B
   \   000113   75F021       MOV       B,#0x21
   \   000116   E5..         MOV       A,?V5
   \   000118   12....       LCALL     ??Subroutine89_0 & 0xFFFF
   \                     ??CrossCallReturnLabel_193:
   \   00011B   F5..         MOV       ?V2,A
   \   00011D   74..         MOV       A,#(funcList >> 8) & 0xff
   \   00011F   39           ADDC      A,R1
   \   000120   F5..         MOV       ?V3,A
   \   000122   85..82       MOV       DPL,?V2
   \   000125   F583         MOV       DPH,A
   \   000127   12....       LCALL     ??Subroutine97_0 & 0xFFFF
   \                     ??CrossCallReturnLabel_229:
   \   00012A   600E         JZ        ??sapp_functionEpProcess_13
   \   00012C                ; Setup parameters for indirect call
   \   00012C   AA..         MOV       R2,?V2
   \   00012E   AB..         MOV       R3,?V3
   \   000130   8A82         MOV       DPL,R2
   \   000132   8B83         MOV       DPH,R3
   \   000134   12....       LCALL     ??Subroutine92_0 & 0xFFFF
   \                     ??CrossCallReturnLabel_215:
   \   000137   12....       LCALL     ?CALL_IND
   \                     ??sapp_functionEpProcess_13:
   \   00013A   85..82       MOV       DPL,?V2
   \   00013D   85..83       MOV       DPH,?V3
   \   000140   12....       LCALL     ??Subroutine95_0 & 0xFFFF
   \                     ??CrossCallReturnLabel_231:
   \   000143   6025         JZ        ??sapp_functionEpProcess_14
   \   000145   85..82       MOV       DPL,?V2
   \   000148   85..83       MOV       DPH,?V3
   \   00014B   A3           INC       DPTR
   \   00014C   A3           INC       DPTR
   \   00014D   A3           INC       DPTR
   \   00014E   A3           INC       DPTR
   \   00014F   A3           INC       DPTR
   \   000150   A3           INC       DPTR
   \   000151   A3           INC       DPTR
   \   000152   A3           INC       DPTR
   \   000153   A3           INC       DPTR
   \   000154   A3           INC       DPTR
   \   000155   E0           MOVX      A,@DPTR
   \   000156   6012         JZ        ??sapp_functionEpProcess_14
   \   000158   C0E0         PUSH      A
   \   00015A   E5..         MOV       A,?V2
   \   00015C   240D         ADD       A,#0xd
   \   00015E   F582         MOV       DPL,A
   \   000160   E4           CLR       A
   \   000161   35..         ADDC      A,?V3
   \   000163   F583         MOV       DPH,A
   \   000165   D0E0         POP       A
   \   000167   F0           MOVX      @DPTR,A
   \   000168   7E01         MOV       R6,#0x1
   \                     ??sapp_functionEpProcess_14:
   \   00016A   05..         INC       ?V4
   \   00016C   E5..         MOV       A,?V4
   \   00016E   7002         JNZ       ??sapp_functionEpProcess_11
   \   000170   05..         INC       ?V5
   \                     ??sapp_functionEpProcess_11:
   \   000172   90....       MOV       DPTR,#funcCount
   \   000175   E0           MOVX      A,@DPTR
   \   000176   F8           MOV       R0,A
   \   000177   C3           CLR       C
   \   000178   E5..         MOV       A,?V4
   \   00017A   98           SUBB      A,R0
   \   00017B   E5..         MOV       A,?V5
   \   00017D   12....       LCALL     ?Subroutine71 & 0xFFFF
   \                     ??CrossCallReturnLabel_109:
   \   000180   4088         JC        ??sapp_functionEpProcess_12
   \   000182   EE           MOV       A,R6
   \   000183   A2E0         MOV       C,0xE0 /* A   */.0
   \   000185   4003         JC        $+5
   \   000187   02....       LJMP      ??sapp_functionEpProcess_3 & 0xFFFF
   \   00018A                ; Setup parameters for call to function osal_start_timerEx
   \   00018A   12....       LCALL     ?Subroutine32 & 0xFFFF
   \                     ??CrossCallReturnLabel_220:
   \   00018D   02....       LJMP      ??sapp_functionEpProcess_3 & 0xFFFF
   \                     ??sapp_functionEpProcess_10:
   \   000190                ; Setup parameters for call to function osal_stop_timerEx
   \   000190   7A01         MOV       R2,#0x1
   \   000192   7B00         MOV       R3,#0x0
   \   000194   85..82       MOV       DPL,?XSP + 0
   \   000197   85..83       MOV       DPH,?XSP + 1
   \   00019A   E0           MOVX      A,@DPTR
   \   00019B   F9           MOV       R1,A
   \   00019C   12....       LCALL     `??osal_stop_timerEx::?relay`; Banked call to: osal_stop_timerEx
   \   00019F   02....       LJMP      ??sapp_functionEpProcess_3 & 0xFFFF
    400                  }
    401                  // return unprocessed events
    402                  return (events ^ SYS_EVENT_MSG);
   \                     ??sapp_functionEpProcess_4:
   \   0001A2   AA..         MOV       R2,?V6
   \   0001A4   E5..         MOV       A,?V7
   \   0001A6   6480         XRL       A,#0x80
   \   0001A8   FB           MOV       R3,A
   \   0001A9   02....       LJMP      ??sapp_functionEpProcess_15 & 0xFFFF
    403              }
    404          
    405              // , time_out
    406              if(events & SAPP_SEND_PERIODIC_MSG_EVT)
   \                     ??sapp_functionEpProcess_0:
   \   0001AC   EA           MOV       A,R2
   \   0001AD   A2E0         MOV       C,0xE0 /* A   */.0
   \   0001AF   4003         JC        $+5
   \   0001B1   02....       LJMP      ??sapp_functionEpProcess_16 & 0xFFFF
    407              {
    408                  int i;
    409                  for(i = 0; i < funcCount; i++)
   \   0001B4   75..00       MOV       ?V0,#0x0
   \   0001B7   75..00       MOV       ?V1,#0x0
   \   0001BA   806B         SJMP      ??sapp_functionEpProcess_17
    410                  {
    411                      struct ep_info_t *ep = &funcList[i];
   \                     ??sapp_functionEpProcess_18:
   \   0001BC   E5..         MOV       A,?V0
   \   0001BE   75F021       MOV       B,#0x21
   \   0001C1   A4           MUL       AB
   \   0001C2   F8           MOV       R0,A
   \   0001C3   AAF0         MOV       R2,B
   \   0001C5   75F021       MOV       B,#0x21
   \   0001C8   E5..         MOV       A,?V1
   \   0001CA   12....       LCALL     ??Subroutine89_0 & 0xFFFF
   \                     ??CrossCallReturnLabel_194:
   \   0001CD   FE           MOV       R6,A
   \   0001CE   74..         MOV       A,#(funcList >> 8) & 0xff
   \   0001D0   39           ADDC      A,R1
   \   0001D1   FF           MOV       R7,A
    412                      if(ep->time_out && ep->function.cycle)
   \   0001D2   8E82         MOV       DPL,R6
   \   0001D4   F583         MOV       DPH,A
   \   0001D6   12....       LCALL     ??Subroutine95_0 & 0xFFFF
   \                     ??CrossCallReturnLabel_232:
   \   0001D9   6044         JZ        ??sapp_functionEpProcess_19
   \   0001DB   8E82         MOV       DPL,R6
   \   0001DD   8F83         MOV       DPH,R7
   \   0001DF   A3           INC       DPTR
   \   0001E0   A3           INC       DPTR
   \   0001E1   A3           INC       DPTR
   \   0001E2   A3           INC       DPTR
   \   0001E3   A3           INC       DPTR
   \   0001E4   A3           INC       DPTR
   \   0001E5   A3           INC       DPTR
   \   0001E6   A3           INC       DPTR
   \   0001E7   A3           INC       DPTR
   \   0001E8   A3           INC       DPTR
   \   0001E9   E0           MOVX      A,@DPTR
   \   0001EA   6033         JZ        ??sapp_functionEpProcess_19
    413                      {
    414                          // 
    415                          ep->timerTick = ep->timerTick - 1;
   \   0001EC   12....       LCALL     ?Subroutine60 & 0xFFFF
   \                     ??CrossCallReturnLabel_93:
   \   0001EF   E0           MOVX      A,@DPTR
   \   0001F0   14           DEC       A
   \   0001F1   F0           MOVX      @DPTR,A
    416                          if(ep->timerTick == 0)
   \   0001F2   702B         JNZ       ??sapp_functionEpProcess_19
    417                          {
    418                            // ,time_out
    419                            (*ep->time_out)(ep);
   \   0001F4                ; Setup parameters for indirect call
   \   0001F4   EE           MOV       A,R6
   \   0001F5   FA           MOV       R2,A
   \   0001F6   EF           MOV       A,R7
   \   0001F7   FB           MOV       R3,A
   \   0001F8   8E82         MOV       DPL,R6
   \   0001FA   8F83         MOV       DPH,R7
   \   0001FC   A3           INC       DPTR
   \   0001FD   A3           INC       DPTR
   \   0001FE   A3           INC       DPTR
   \   0001FF   A3           INC       DPTR
   \   000200   E0           MOVX      A,@DPTR
   \   000201   F8           MOV       R0,A
   \   000202   12....       LCALL     ??Subroutine92_0 & 0xFFFF
   \                     ??CrossCallReturnLabel_216:
   \   000205   12....       LCALL     ?CALL_IND
    420                            ep->timerTick = ep->function.cycle;
   \   000208   8E82         MOV       DPL,R6
   \   00020A   8F83         MOV       DPH,R7
   \   00020C   A3           INC       DPTR
   \   00020D   A3           INC       DPTR
   \   00020E   A3           INC       DPTR
   \   00020F   A3           INC       DPTR
   \   000210   A3           INC       DPTR
   \   000211   A3           INC       DPTR
   \   000212   A3           INC       DPTR
   \   000213   A3           INC       DPTR
   \   000214   A3           INC       DPTR
   \   000215   A3           INC       DPTR
   \   000216   E0           MOVX      A,@DPTR
   \   000217   C0E0         PUSH      A
   \   000219   12....       LCALL     ?Subroutine60 & 0xFFFF
    421                          }
    422                      }
    423          #if 0
    424                      if(ep->userTimer && ep->res_available)
    425                      {
    426                          ep->userTimer = ep->userTimer - 1;
    427                          if(ep->userTimer <= 1)
    428                          {
    429                              (*ep->res_available)(ep, ResUserTimer, NULL);
    430                              ep->userTimer = 0;
    431                          }
    432                      }
    433          #endif
    434                  }
   \                     ??CrossCallReturnLabel_94:
   \   00021C   D0E0         POP       A
   \   00021E   F0           MOVX      @DPTR,A
   \                     ??sapp_functionEpProcess_19:
   \   00021F   05..         INC       ?V0
   \   000221   E5..         MOV       A,?V0
   \   000223   7002         JNZ       ??sapp_functionEpProcess_17
   \   000225   05..         INC       ?V1
   \                     ??sapp_functionEpProcess_17:
   \   000227   12....       LCALL     ?Subroutine21 & 0xFFFF
   \                     ??CrossCallReturnLabel_34:
   \   00022A   4090         JC        ??sapp_functionEpProcess_18
    435                  // 
    436                  osal_start_timerEx(task_id, SAPP_SEND_PERIODIC_MSG_EVT, 1000);
   \   00022C                ; Setup parameters for call to function osal_start_timerEx
   \   00022C   12....       LCALL     ?Subroutine32 & 0xFFFF
    437                  // return unprocessed events
    438                  return (events ^ SAPP_SEND_PERIODIC_MSG_EVT);
   \                     ??CrossCallReturnLabel_221:
   \   00022F   E5..         MOV       A,?V6
   \   000231   6401         XRL       A,#0x1
   \   000233   FA           MOV       R2,A
   \   000234   AB..         MOV       R3,?V7
   \   000236   8004         SJMP      ??sapp_functionEpProcess_15
    439              }
    440              // Discard unknown events
    441              return 0;
   \                     ??sapp_functionEpProcess_16:
   \   000238   7A00         MOV       R2,#0x0
   \   00023A   7B00         MOV       R3,#0x0
   \                     ??sapp_functionEpProcess_15:
   \   00023C   7401         MOV       A,#0x1
   \   00023E   02....       LJMP      ?Subroutine6 & 0xFFFF
    442          }

   \                                 In  segment BANKED_CODE, align 1, keep-with-next
   \                     ?Subroutine60:
   \   000000   EE           MOV       A,R6
   \   000001   240D         ADD       A,#0xd
   \   000003   F582         MOV       DPL,A
   \   000005   E4           CLR       A
   \   000006   3F           ADDC      A,R7
   \   000007   F583         MOV       DPH,A
   \   000009   22           RET

   \                                 In  segment BANKED_CODE, align 1, keep-with-next
   \                     ?Subroutine58:
   \   000000   E5..         MOV       A,?V0
   \   000002   2414         ADD       A,#0x14
   \   000004   F582         MOV       DPL,A
   \   000006   E4           CLR       A
   \   000007   35..         ADDC      A,?V1
   \   000009   F583         MOV       DPH,A
   \   00000B   22           RET

   \                                 In  segment BANKED_CODE, align 1, keep-with-next
   \                     ?Subroutine32:
   \   000000   7CE8         MOV       R4,#-0x18
   \   000002   7D03         MOV       R5,#0x3
   \   000004   7A01         MOV       R2,#0x1
   \   000006   7B00         MOV       R3,#0x0
   \   000008   85..82       MOV       DPL,?XSP + 0
   \   00000B   85..83       MOV       DPH,?XSP + 1
   \   00000E                REQUIRE ??Subroutine93_0
   \   00000E                ; // Fall through to label ??Subroutine93_0

   \                                 In  segment BANKED_CODE, align 1, keep-with-next
   \                     ??Subroutine93_0:
   \   000000   E0           MOVX      A,@DPTR
   \   000001   F9           MOV       R1,A
   \   000002   12....       LCALL     `??osal_start_timerEx::?relay`; Banked call to: osal_start_timerEx
   \   000005   22           RET

   \                                 In  segment BANKED_CODE, align 1, keep-with-next
   \                     ?Subroutine31:
   \   000000   E0           MOVX      A,@DPTR
   \   000001   F8           MOV       R0,A
   \   000002   90....       MOV       DPTR,#funcCount
   \   000005   E0           MOVX      A,@DPTR
   \   000006   C3           CLR       C
   \   000007   98           SUBB      A,R0
   \   000008   22           RET

   \                                 In  segment BANKED_CODE, align 1, keep-with-next
   \                     ?Subroutine24:
   \   000000   E0           MOVX      A,@DPTR
   \   000001   75F021       MOV       B,#0x21
   \   000004   A4           MUL       AB
   \   000005   F8           MOV       R0,A
   \   000006   A9F0         MOV       R1,B
   \   000008   74..         MOV       A,#(funcList + 223) & 0xff
   \   00000A   28           ADD       A,R0
   \   00000B   FA           MOV       R2,A
   \   00000C   74..         MOV       A,#((funcList - 33) >> 8) & 0xff
   \   00000E   22           RET
    443          
    444          //luyouwifi
    445          static uint8 uartMsgProcesser1(uint8 *msg)
    446          {
    447              //uint8 length = 0;
    448              //uint8 offset = 60;
    449              mtOSALSerialData_t *pMsg = (mtOSALSerialData_t *)msg;
    450              mtUserSerialMsg_t *pMsgBody = (mtUserSerialMsg_t *)pMsg->msg;
    451              uint8 i = 0;
    452              for(i;i<30;i++){
                         ^
Warning[Pe174]: expression has no effect
    453                if((&pMsgBody->sop)[i] == '+'){
    454                  if((&pMsgBody->sop)[i+4] != ',') {
    455                    //HalUARTWrite(0,&pMsgBody->sop+i+4,1);
    456                    return 1;
    457                  }else{
    458                    uint8 length = 0;
    459                    for(length;length<60;length++){
                               ^
Warning[Pe174]: expression has no effect
    460                      if((&pMsgBody->sop)[5+i+length] == ','){
    461                        //HalUARTWrite(0,"out",3);
    462                        SendData(TRANSFER_ENDPOINT,&pMsgBody->sop+i+5,0x0000,1,length+1);
    463                        return 1;
    464                      }else{
    465                        //HalUARTWrite(0,&pMsgBody->sop+i+5+length,1);
    466                      }
    467                    }
    468                   }
    469                }
    470              }
    471              
    472              return 1;
    473          }
    474          
    475          #if defined(ZDO_COORDINATOR)
    476          static uint8 uartMsgProcesser(uint8 *msg)
    477          {
    478             //uint8 length = 0;
    479              //uint8 offset = 60;
    480              mtOSALSerialData_t *pMsg = (mtOSALSerialData_t *)msg;
    481              mtUserSerialMsg_t *pMsgBody = (mtUserSerialMsg_t *)pMsg->msg;
    482              uint8 i = 0;
    483              for(i;i<30;i++){
    484                if((&pMsgBody->sop)[i] == '+'){
    485                  if((&pMsgBody->sop)[i+4] != ',') {
    486                    //HalUARTWrite(0,&pMsgBody->sop+i+4,1);
    487                    return 1;
    488                  }else{
    489                    uint8 length = 0;
    490                    for(length;length<60;length++){
    491                      if((&pMsgBody->sop)[5+i+length] == ','){
    492                        //HalUARTWrite(0,"out",3);
    493                        SendData(TRANSFER_ENDPOINT,&pMsgBody->sop+i+5,0xFFFF,1,length+1);
    494                        return 1;
    495                      }else{
    496                        //HalUARTWrite(0,&pMsgBody->sop+i+5+length,1);
    497                      }
    498                    }
    499                   }
    500                }
    501              }
    502              
    503              return 1;
    504          }
    505          #endif
    506          

   \                                 In  segment BANKED_CODE, align 1, keep-with-next
    507          uint8 SendData(uint8 srcEP, const void *buf, uint16 addr, uint8 dstEP, uint8 Len)
   \                     SendData:
    508          {
   \   000000                REQUIRE ?V0
   \   000000                REQUIRE ?V1
   \   000000                REQUIRE ?V2
   \   000000                REQUIRE ?V3
   \   000000   74F4         MOV       A,#-0xc
   \   000002   12....       LCALL     ?BANKED_ENTER_XDATA
   \   000005                ; Saved register size: 12
   \   000005                ; Auto size: 12
   \   000005   74F4         MOV       A,#-0xc
   \   000007   12....       LCALL     ?ALLOC_XSTACK8
   \   00000A   E9           MOV       A,R1
   \   00000B   FE           MOV       R6,A
   \   00000C   8A..         MOV       ?V0,R2
   \   00000E   8B..         MOV       ?V1,R3
    509              static uint8 transID = 0;
    510              afAddrType_t SendDataAddr;
    511              struct ep_info_t *epInfo;
    512          
    513              if(srcEP <= funcCount)
   \   000010   90....       MOV       DPTR,#funcCount
   \   000013   E0           MOVX      A,@DPTR
   \   000014   C3           CLR       C
   \   000015   9E           SUBB      A,R6
   \   000016   4016         JC        ??SendData_0
    514                  epInfo = &funcList[srcEP - 1];
   \   000018   E9           MOV       A,R1
   \   000019   75F021       MOV       B,#0x21
   \   00001C   A4           MUL       AB
   \   00001D   F8           MOV       R0,A
   \   00001E   A9F0         MOV       R1,B
   \   000020   74..         MOV       A,#(funcList + 223) & 0xff
   \   000022   28           ADD       A,R0
   \   000023   F8           MOV       R0,A
   \   000024   74..         MOV       A,#((funcList - 33) >> 8) & 0xff
   \   000026   39           ADDC      A,R1
   \   000027   F9           MOV       R1,A
   \   000028   E8           MOV       A,R0
   \   000029   FA           MOV       R2,A
   \   00002A   E9           MOV       A,R1
   \   00002B   FB           MOV       R3,A
   \   00002C   8004         SJMP      ??SendData_1
    515              else
    516                  epInfo = &controlEndPointInfo;
   \                     ??SendData_0:
   \   00002E   7A..         MOV       R2,#controlEndPointInfo & 0xff
   \   000030   7B..         MOV       R3,#(controlEndPointInfo >> 8) & 0xff
    517          
    518              SendDataAddr.addrMode = (afAddrMode_t)Addr16Bit;         //
   \                     ??SendData_1:
   \   000032   7408         MOV       A,#0x8
   \   000034   12....       LCALL     ?XSTACK_DISP0_8
   \   000037   7402         MOV       A,#0x2
   \   000039   F0           MOVX      @DPTR,A
    519              SendDataAddr.endPoint = dstEP;
   \   00003A   7418         MOV       A,#0x18
   \   00003C   12....       LCALL     ?XSTACK_DISP0_8
   \   00003F   E0           MOVX      A,@DPTR
   \   000040   C0E0         PUSH      A
   \   000042   7409         MOV       A,#0x9
   \   000044   12....       LCALL     ?XSTACK_DISP0_8
   \   000047   D0E0         POP       A
   \   000049   F0           MOVX      @DPTR,A
    520              SendDataAddr.addr.shortAddr = addr;
   \   00004A   85..82       MOV       DPL,?XSP + 0
   \   00004D   85..83       MOV       DPH,?XSP + 1
   \   000050   EC           MOV       A,R4
   \   000051   F0           MOVX      @DPTR,A
   \   000052   A3           INC       DPTR
   \   000053   ED           MOV       A,R5
   \   000054   F0           MOVX      @DPTR,A
    521              if ( AF_DataRequest( &SendDataAddr, //
    522                                   // TODO:
    523                                   &epInfo->SampleApp_epDesc,   //ID
    524                                   SAPP_PERIODIC_CLUSTERID,//ID
    525                                   Len,
    526                                   (uint8*)buf,
    527                                   &transID,  //ID
    528                                   AF_DISCV_ROUTE,
    529                                   AF_DEFAULT_RADIUS ) == afStatus_SUCCESS )
   \   000055                ; Setup parameters for call to function AF_DataRequest
   \   000055   75..1E       MOV       ?V2,#0x1e
   \   000058   78..         MOV       R0,#?V2
   \   00005A   12....       LCALL     ?PUSH_XSTACK_I_ONE
   \   00005D   75....       MOV       ?V2,#??transID & 0xff
   \   000060   75....       MOV       ?V3,#(??transID >> 8) & 0xff
   \   000063   78..         MOV       R0,#?V2
   \   000065   12....       LCALL     ?PUSH_XSTACK_I_TWO
   \   000068   78..         MOV       R0,#?V0
   \   00006A   12....       LCALL     ?PUSH_XSTACK_I_TWO
   \   00006D   741E         MOV       A,#0x1e
   \   00006F   12....       LCALL     ?XSTACK_DISP0_8
   \   000072   E0           MOVX      A,@DPTR
   \   000073   F5..         MOV       ?V0,A
   \   000075   75..00       MOV       ?V1,#0x0
   \   000078   78..         MOV       R0,#?V0
   \   00007A   12....       LCALL     ?PUSH_XSTACK_I_TWO
   \   00007D   75..01       MOV       ?V0,#0x1
   \   000080   78..         MOV       R0,#?V0
   \   000082   12....       LCALL     ?PUSH_XSTACK_I_TWO
   \   000085   7920         MOV       R1,#0x20
   \   000087   EA           MOV       A,R2
   \   000088   240F         ADD       A,#0xf
   \   00008A   FC           MOV       R4,A
   \   00008B   E4           CLR       A
   \   00008C   3B           ADDC      A,R3
   \   00008D   FD           MOV       R5,A
   \   00008E   7409         MOV       A,#0x9
   \   000090   12....       LCALL     ?XSTACK_DISP101_8
   \   000093   12....       LCALL     `??AF_DataRequest::?relay`; Banked call to: AF_DataRequest
   \   000096   7409         MOV       A,#0x9
   \   000098   12....       LCALL     ?DEALLOC_XSTACK8
   \   00009B   E9           MOV       A,R1
   \   00009C   7011         JNZ       ??SendData_2
    530              {
    531                  HalLedBlink( HAL_LED_1, 1, 50, 250 );
   \   00009E                ; Setup parameters for call to function HalLedBlink
   \   00009E   7CFA         MOV       R4,#-0x6
   \   0000A0   7D00         MOV       R5,#0x0
   \   0000A2   7B32         MOV       R3,#0x32
   \   0000A4   7A01         MOV       R2,#0x1
   \   0000A6   7901         MOV       R1,#0x1
   \   0000A8   12....       LCALL     `??HalLedBlink::?relay`; Banked call to: HalLedBlink
    532                  return 1;
   \   0000AB   7901         MOV       R1,#0x1
   \   0000AD   8002         SJMP      ??SendData_3
    533              }
    534              else
    535              {
    536                  return 0;
   \                     ??SendData_2:
   \   0000AF   7900         MOV       R1,#0x0
   \                     ??SendData_3:
   \   0000B1   740C         MOV       A,#0xc
   \   0000B3   12....       LCALL     ?DEALLOC_XSTACK8
    537              }
   \   0000B6   02....       LJMP      ??Subroutine80_0 & 0xFFFF
    538          }

   \                                 In  segment XDATA_Z, align 1, keep-with-next
   \                     ??transID:
   \   000000                DS 1
   \   000001                REQUIRE __INIT_XDATA_Z
    539          

   \                                 In  segment BANKED_CODE, align 1, keep-with-next
    540          void CreateUserTimer(struct ep_info_t *ep, uint8 seconds)
   \                     CreateUserTimer:
    541          {
   \   000000   74F7         MOV       A,#-0x9
   \   000002   12....       LCALL     ?BANKED_ENTER_XDATA
   \   000005                ; Saved register size: 9
   \   000005                ; Auto size: 0
   \   000005   E9           MOV       A,R1
   \   000006   FE           MOV       R6,A
    542              if(ep == NULL)
   \   000007   EA           MOV       A,R2
   \   000008   4B           ORL       A,R3
   \   000009   6028         JZ        ??CreateUserTimer_0
    543                  return;
    544              if(ep->res_available == NULL)
   \   00000B   8A82         MOV       DPL,R2
   \   00000D   8B83         MOV       DPH,R3
   \   00000F   12....       LCALL     ??Subroutine94_0 & 0xFFFF
   \                     ??CrossCallReturnLabel_235:
   \   000012   601F         JZ        ??CreateUserTimer_0
    545                  return;
    546              ep->userTimer = seconds;
   \   000014   12....       LCALL     ?Subroutine75 & 0xFFFF
   \                     ??CrossCallReturnLabel_117:
   \   000017   EE           MOV       A,R6
   \   000018   F0           MOVX      @DPTR,A
    547              if(isUserTimerRunning == 0)
   \   000019   90....       MOV       DPTR,#isUserTimerRunning
   \   00001C   E0           MOVX      A,@DPTR
   \   00001D   7014         JNZ       ??CreateUserTimer_0
    548              {
    549                  osal_start_timerEx(controlTaskId,
    550                                     SAPP_SEND_PERIODIC_MSG_EVT,
    551                                     1000);
   \   00001F                ; Setup parameters for call to function osal_start_timerEx
   \   00001F   7CE8         MOV       R4,#-0x18
   \   000021   7D03         MOV       R5,#0x3
   \   000023   7A01         MOV       R2,#0x1
   \   000025   7B00         MOV       R3,#0x0
   \   000027   90....       MOV       DPTR,#controlTaskId
   \   00002A   12....       LCALL     ??Subroutine93_0 & 0xFFFF
    552                  isUserTimerRunning = 1;
   \                     ??CrossCallReturnLabel_222:
   \   00002D   90....       MOV       DPTR,#isUserTimerRunning
   \   000030   7401         MOV       A,#0x1
   \   000032   F0           MOVX      @DPTR,A
    553              }
    554          }
   \                     ??CreateUserTimer_0:
   \   000033   02....       LJMP      ?Subroutine2 & 0xFFFF
    555          

   \                                 In  segment BANKED_CODE, align 1, keep-with-next
    556          void DeleteUserTimer(struct ep_info_t *ep)
   \                     DeleteUserTimer:
    557          {
   \   000000   C082         PUSH      DPL
   \   000002   C083         PUSH      DPH
   \   000004                ; Saved register size: 2
   \   000004                ; Auto size: 0
    558              if(ep == NULL)
   \   000004   EA           MOV       A,R2
   \   000005   4B           ORL       A,R3
   \   000006   6003         JZ        ??CrossCallReturnLabel_243
    559                  return;
    560              ep->userTimer = 0;
   \   000008   12....       LCALL     ?Subroutine34 & 0xFFFF
    561          }
   \                     ??CrossCallReturnLabel_243:
   \   00000B   80..         SJMP      ?Subroutine5
    562          

   \                                 In  segment BANKED_CODE, align 1, keep-with-next
    563          void ModifyRefreshCycle(struct ep_info_t *ep, uint8 seconds)
   \                     ModifyRefreshCycle:
    564          {
   \   000000   C082         PUSH      DPL
   \   000002   C083         PUSH      DPH
   \   000004                ; Saved register size: 2
   \   000004                ; Auto size: 0
    565              if(ep == NULL)
   \   000004   EA           MOV       A,R2
   \   000005   4B           ORL       A,R3
   \   000006   6027         JZ        ??ModifyRefreshCycle_0
    566                  return;
    567              if(ep->time_out == NULL)
   \   000008   8A82         MOV       DPL,R2
   \   00000A   8B83         MOV       DPH,R3
   \   00000C   12....       LCALL     ??Subroutine100_0 & 0xFFFF
   \                     ??CrossCallReturnLabel_245:
   \   00000F   EC           MOV       A,R4
   \   000010   4D           ORL       A,R5
   \   000011   601C         JZ        ??ModifyRefreshCycle_0
    568                  return;
    569              ep->function.cycle = seconds;
   \   000013   E9           MOV       A,R1
   \   000014   8A82         MOV       DPL,R2
   \   000016   8B83         MOV       DPH,R3
   \   000018   A3           INC       DPTR
   \   000019   A3           INC       DPTR
   \   00001A   A3           INC       DPTR
   \   00001B   A3           INC       DPTR
   \   00001C   A3           INC       DPTR
   \   00001D   A3           INC       DPTR
   \   00001E   A3           INC       DPTR
   \   00001F   A3           INC       DPTR
   \   000020   A3           INC       DPTR
   \   000021   A3           INC       DPTR
   \   000022   F0           MOVX      @DPTR,A
    570              if(ep->timerTick > seconds)
   \   000023   12....       LCALL     ?Subroutine59 & 0xFFFF
   \                     ??CrossCallReturnLabel_92:
   \   000026   E0           MOVX      A,@DPTR
   \   000027   F8           MOV       R0,A
   \   000028   E9           MOV       A,R1
   \   000029   C3           CLR       C
   \   00002A   98           SUBB      A,R0
   \   00002B   5002         JNC       ??ModifyRefreshCycle_0
    571                  ep->timerTick = seconds;
   \   00002D   E9           MOV       A,R1
   \   00002E   F0           MOVX      @DPTR,A
    572          }
   \                     ??ModifyRefreshCycle_0:
   \   00002F                REQUIRE ?Subroutine5
   \   00002F                ; // Fall through to label ?Subroutine5
    573          
    574          #if ! defined(ZDO_COORDINATOR) && defined(RTR_NWK)
    575          //

   \                                 In  segment BANKED_CODE, align 1, keep-with-next
    576          void RouterTimeoutRoutine(struct ep_info_t *ep)
   \                     RouterTimeoutRoutine:
    577          {
   \   000000                ; Saved register size: 0
   \   000000                ; Auto size: 0
    578              //HalUARTWrite(0,"AT+CWLIF\r\n",10);
    579              //SendData(ep->ep, (unsigned char *)&topoBuffer, 0x0000, TRANSFER_ENDPOINT, sizeof(TOPOINFO)); //
    580          }
   \   000000   02....       LJMP      ?BRET
    581          //wifi

   \                                 In  segment BANKED_CODE, align 1, keep-with-next
    582          void RouterIncomingRoutine(struct ep_info_t *ep, uint16 addr, uint8 endPoint, afMSGCommandFormat_t *msg){
   \                     RouterIncomingRoutine:
   \   000000                REQUIRE ?V0
   \   000000                REQUIRE ?V1
   \   000000                REQUIRE ?V2
   \   000000                REQUIRE ?V3
   \   000000                REQUIRE ?V4
   \   000000                REQUIRE ?V5
   \   000000   74F2         MOV       A,#-0xe
   \   000002   12....       LCALL     ?BANKED_ENTER_XDATA
   \   000005                ; Saved register size: 14
   \   000005                ; Auto size: 100
   \   000005   749C         MOV       A,#-0x64
   \   000007   12....       LCALL     ?ALLOC_XSTACK8
    583            
    584             UartTX_Send_String("AT+CIPSTART=0,\"TCP\",\"192.168.4.2\",5000\r\n",40);
   \   00000A                ; Setup parameters for call to function UartTX_Send_String
   \   00000A   7C28         MOV       R4,#0x28
   \   00000C   7D00         MOV       R5,#0x0
   \   00000E   7A..         MOV       R2,#`?<Constant "AT+CIPSTART=0,\\"TCP\\",\\"...">` & 0xff
   \   000010   7B..         MOV       R3,#(`?<Constant "AT+CIPSTART=0,\\"TCP\\",\\"...">` >> 8) & 0xff
   \   000012   12....       LCALL     ?Subroutine52 & 0xFFFF
    585             delayms(100);
    586             char srcchar1[100] = "AT+CIPSEND=0,";
   \                     ??CrossCallReturnLabel_83:
   \   000015   90....       MOV       DPTR,#`?<Constant "AT+CIPSEND=0,">`
   \   000018   AC..         MOV       R4,?XSP + 0
   \   00001A   AD..         MOV       R5,?XSP + 1
   \   00001C   7464         MOV       A,#0x64
   \   00001E   12....       LCALL     ?MOVE_LONG8_XDATA_XDATA
    587             char * tempchar1 = (char *)osal_mem_alloc(sizeof(char)*50);
   \   000021                ; Setup parameters for call to function osal_mem_alloc
   \   000021   7A32         MOV       R2,#0x32
   \   000023   FB           MOV       R3,A
   \   000024   12....       LCALL     `??osal_mem_alloc::?relay`; Banked call to: osal_mem_alloc
   \   000027   8A..         MOV       ?V0,R2
   \   000029   8B..         MOV       ?V1,R3
   \   00002B   AE..         MOV       R6,?V0
   \   00002D   AF..         MOV       R7,?V1
   \   00002F   7472         MOV       A,#0x72
   \   000031   12....       LCALL     ?XSTACK_DISP0_8
   \   000034   E0           MOVX      A,@DPTR
   \   000035   F5..         MOV       ?V2,A
   \   000037   A3           INC       DPTR
   \   000038   E0           MOVX      A,@DPTR
   \   000039   F5..         MOV       ?V3,A
    588             sprintf(tempchar1,"%d",msg->DataLength+2);
   \   00003B   85..82       MOV       DPL,?V2
   \   00003E   F583         MOV       DPH,A
   \   000040   A3           INC       DPTR
   \   000041   8582..       MOV       ?V0,DPL
   \   000044   8583..       MOV       ?V1,DPH
   \   000047                ; Setup parameters for call to function sprintf
   \   000047   E0           MOVX      A,@DPTR
   \   000048   2402         ADD       A,#0x2
   \   00004A   F5..         MOV       ?V4,A
   \   00004C   A3           INC       DPTR
   \   00004D   E0           MOVX      A,@DPTR
   \   00004E   3400         ADDC      A,#0x0
   \   000050   F5..         MOV       ?V5,A
   \   000052   78..         MOV       R0,#?V4
   \   000054   12....       LCALL     ?PUSH_XSTACK_I_TWO
   \   000057   7C..         MOV       R4,#`?<Constant "%d">` & 0xff
   \   000059   7D..         MOV       R5,#(`?<Constant "%d">` >> 8) & 0xff
   \   00005B   12....       LCALL     `??sprintf::?relay`; Banked call to: sprintf
   \   00005E   7402         MOV       A,#0x2
   \   000060   12....       LCALL     ?DEALLOC_XSTACK8
    589             strcat(srcchar1,tempchar1);
   \   000063                ; Setup parameters for call to function strcat
   \   000063   EE           MOV       A,R6
   \   000064   FC           MOV       R4,A
   \   000065   EF           MOV       A,R7
   \   000066   FD           MOV       R5,A
   \   000067   AA..         MOV       R2,?XSP + 0
   \   000069   AB..         MOV       R3,?XSP + 1
   \   00006B   12....       LCALL     `??strcat::?relay`; Banked call to: strcat
    590             strcat(srcchar1,"\r\n");
   \   00006E                ; Setup parameters for call to function strcat
   \   00006E   7C..         MOV       R4,#`?<Constant "\\r\\n">` & 0xff
   \   000070   7D..         MOV       R5,#(`?<Constant "\\r\\n">` >> 8) & 0xff
   \   000072   12....       LCALL     `??strcat::?relay`; Banked call to: strcat
    591             UartTX_Send_String(srcchar1,strlen(srcchar1));
   \   000075                ; Setup parameters for call to function strlen
   \   000075   12....       LCALL     ?Subroutine38 & 0xFFFF
    592             delayms(100);
    593             UartTX_Send_String(msg->Data,msg->DataLength);
                                       ^
Warning[Pe167]: argument of type "uint8 *" is incompatible with parameter of
          type "char *"
   \                     ??CrossCallReturnLabel_52:
   \   000078   E5..         MOV       A,?V2
   \   00007A   2403         ADD       A,#0x3
   \   00007C   F5..         MOV       ?V2,A
   \   00007E   5002         JNC       ??RouterIncomingRoutine_0
   \   000080   05..         INC       ?V3
   \                     ??RouterIncomingRoutine_0:
   \   000082                ; Setup parameters for call to function UartTX_Send_String
   \   000082   12....       LCALL     ?Subroutine20 & 0xFFFF
    594             UartTX_Send_String("\r\n",2);
    595             delayms(100);
    596          
    597             UartTX_Send_String("AT+CIPSTART=0,\"TCP\",\"192.168.4.3\",5000\r\n",40);
   \                     ??CrossCallReturnLabel_30:
   \   000085                ; Setup parameters for call to function UartTX_Send_String
   \   000085   7C28         MOV       R4,#0x28
   \   000087   7D00         MOV       R5,#0x0
   \   000089   7A..         MOV       R2,#`?<Constant "AT+CIPSTART=0,\\"TCP\\",\\"...">_1` & 0xff
   \   00008B   7B..         MOV       R3,#(`?<Constant "AT+CIPSTART=0,\\"TCP\\",\\"...">_1` >> 8) & 0xff
   \   00008D   12....       LCALL     ?Subroutine52 & 0xFFFF
    598             delayms(100);
    599             UartTX_Send_String(srcchar1,strlen(srcchar1));
   \                     ??CrossCallReturnLabel_84:
   \   000090                ; Setup parameters for call to function strlen
   \   000090   12....       LCALL     ?Subroutine38 & 0xFFFF
    600             delayms(100);
    601             UartTX_Send_String(msg->Data,msg->DataLength);
                                       ^
Warning[Pe167]: argument of type "uint8 *" is incompatible with parameter of
          type "char *"
   \                     ??CrossCallReturnLabel_53:
   \   000093                ; Setup parameters for call to function UartTX_Send_String
   \   000093   12....       LCALL     ?Subroutine20 & 0xFFFF
    602             UartTX_Send_String("\r\n",2);
    603             delayms(100);
    604             
    605          }
   \                     ??CrossCallReturnLabel_31:
   \   000096   7464         MOV       A,#0x64
   \   000098   02....       LJMP      ?Subroutine3 & 0xFFFF

   \                                 In  segment BANKED_CODE, align 1, keep-with-next
   \                     ?Subroutine38:
   \   000000   AA..         MOV       R2,?XSP + 0
   \   000002   AB..         MOV       R3,?XSP + 1
   \   000004   12....       LCALL     `??strlen::?relay`; Banked call to: strlen
   \   000007   8A..         MOV       ?V4,R2
   \   000009   8B..         MOV       ?V5,R3
   \   00000B   AC..         MOV       R4,?V4
   \   00000D   AD..         MOV       R5,?V5
   \   00000F                ; Setup parameters for call to function UartTX_Send_String
   \   00000F                ; Setup parameters for call to function UartTX_Send_String
   \   00000F   AA..         MOV       R2,?XSP + 0
   \   000011   AB..         MOV       R3,?XSP + 1
   \   000013   12....       LCALL     ?Subroutine74 & 0xFFFF
   \                     ??CrossCallReturnLabel_115:
   \   000016   22           RET

   \                                 In  segment BANKED_CODE, align 1, keep-with-next
   \                     ?Subroutine20:
   \   000000   85..82       MOV       DPL,?V0
   \   000003   85..83       MOV       DPH,?V1
   \   000006   E0           MOVX      A,@DPTR
   \   000007   FC           MOV       R4,A
   \   000008   A3           INC       DPTR
   \   000009   E0           MOVX      A,@DPTR
   \   00000A   FD           MOV       R5,A
   \   00000B   85..82       MOV       DPL,?V2
   \   00000E   85..83       MOV       DPH,?V3
   \   000011   12....       LCALL     ?Subroutine65 & 0xFFFF
   \                     ??CrossCallReturnLabel_207:
   \   000014   12....       LCALL     `??UartTX_Send_String::?relay`; Banked call to: UartTX_Send_String
   \   000017                ; Setup parameters for call to function UartTX_Send_String
   \   000017                ; Setup parameters for call to function UartTX_Send_String
   \   000017   7C02         MOV       R4,#0x2
   \   000019   7D00         MOV       R5,#0x0
   \   00001B   7A..         MOV       R2,#`?<Constant "\\r\\n">` & 0xff
   \   00001D   7B..         MOV       R3,#(`?<Constant "\\r\\n">` >> 8) & 0xff
   \   00001F   12....       LCALL     ?Subroutine74 & 0xFFFF
   \                     ??CrossCallReturnLabel_116:
   \   000022   22           RET

   \                                 In  segment BANKED_CODE, align 1, keep-with-next
   \                     ?Subroutine51:
   \   000000   EA           MOV       A,R2
   \   000001   2C           ADD       A,R4
   \   000002   F582         MOV       DPL,A
   \   000004   E4           CLR       A
   \   000005   3B           ADDC      A,R3
   \   000006   F583         MOV       DPH,A
   \   000008   A3           INC       DPTR
   \   000009   22           RET

   \                                 In  segment XDATA_ID, align 1, keep-with-next
   \                     `?<Initializer for at>`:
   \   000000   415400       DB "AT"

   \                                 In  segment XDATA_ID, align 1, keep-with-next
   \                     `?<Initializer for rst>`:
   \   000000   52535400     DB "RST"

   \                                 In  segment XDATA_ID, align 1, keep-with-next
   \                     `?<Initializer for cwmode_1>`:
   \   000000   43574D4F     DB "CWMODE=1"
   \            44453D31
   \            00      

   \                                 In  segment XDATA_ID, align 1, keep-with-next
   \                     `?<Initializer for cwmode_2>`:
   \   000000   43574D4F     DB "CWMODE=2"
   \            44453D32
   \            00      

   \                                 In  segment XDATA_ID, align 1, keep-with-next
   \                     `?<Initializer for cwmode_3>`:
   \   000000   43574D4F     DB "CWMODE=3"
   \            44453D33
   \            00      

   \                                 In  segment XDATA_ID, align 1, keep-with-next
   \                     `?<Initializer for cwmode_question_mark>`:
   \   000000   43574D4F     DB "CWMODE?"
   \            44453F00

   \                                 In  segment XDATA_ID, align 1, keep-with-next
   \                     `?<Initializer for cipmux>`:
   \   000000   4349504D     DB "CIPMUX=1"
   \            55583D31
   \            00      

   \                                 In  segment XDATA_ID, align 1, keep-with-next
   \                     `?<Initializer for cipserver>`:
   \   000000   43495053     DB "CIPSERVER"
   \            45525645
   \            5200    

   \                                 In  segment XDATA_ID, align 1, keep-with-next
   \                     `?<Initializer for cipstart>`:
   \   000000   43495053     DB "CIPSTART"
   \            54415254
   \            00      

   \                                 In  segment XDATA_ID, align 1, keep-with-next
   \                     `?<Initializer for cipstatus>`:
   \   000000   43495053     DB "CIPSTATUS"
   \            54415455
   \            5300    

   \                                 In  segment XDATA_ID, align 1, keep-with-next
   \                     `?<Initializer for cipsend>`:
   \   000000   43495053     DB "CIPSEND"
   \            454E4400

   \                                 In  segment XDATA_ID, align 1, keep-with-next
   \                     `?<Initializer for sendok>`:
   \   000000   53454E44     DB "SENDOK"
   \            4F4B00  

   \                                 In  segment XDATA_ID, align 1, keep-with-next
   \                     `?<Initializer for error>`:
   \   000000   4552524F     DB "ERROR"
   \            5200    

   \                                 In  segment XDATA_ID, align 1, keep-with-next
   \                     `?<Initializer for arrow>`:
   \   000000   3E00         DB ">"

   \                                 In  segment XDATA_ID, align 1, keep-with-next
   \                     `?<Initializer for cwlif>`:
   \   000000   43574C49     DB "CWLIF"
   \            4600    

   \                                 In  segment XDATA_ID, align 1, keep-with-next
   \                     `?<Initializer for cwlap>`:
   \   000000   43574C41     DB "CWLAP"
   \            5000    

   \                                 In  segment XDATA_ID, align 1, keep-with-next
   \                     `?<Initializer for cifsr>`:
   \   000000   43494653     DB "CIFSR"
   \            5200    

   \                                 In  segment XDATA_ID, align 1, keep-with-next
   \                     `?<Initializer for ipd>`:
   \   000000   2B495044     DB "+IPD"
   \            00      

   \                                 In  segment XDATA_ID, align 1, keep-with-next
   \                     `?<Initializer for connect>`:
   \   000000   302C434F     DB "0,CONNECT"
   \            4E4E4543
   \            5400    

   \                                 In  segment XDATA_ID, align 1, keep-with-next
   \                     `?<Initializer for topoBuffer>`:
   \   000000   02           DB 2
   \   000001   00           DB 0
   \   000002   00           DB 0
   \   000003   00           DB 0
   \   000004   00           DB 0
   \   000005   00           DB 0
   \   000006   00           DB 0
   \   000007   00           DB 0
   \   000008   00           DB 0
   \   000009   0000         DW 0
   \   00000B   0000         DW 0
   \   00000D   00           DB 0

   \                                 In  segment XDATA_ID, align 1, keep-with-next
   \                     `?<Initializer for commonClusterId>`:
   \   000000   0100         DW 1

   \                                 In  segment BANK_RELAYS, align 1
   \                     `??init::?relay`:
   \   000000   12....       LCALL   ?BDISPATCH
   \   000003   ......       DC24    init

   \                                 In  segment BANK_RELAYS, align 1
   \                     `??creatNode::?relay`:
   \   000000   12....       LCALL   ?BDISPATCH
   \   000003   ......       DC24    creatNode

   \                                 In  segment BANK_RELAYS, align 1
   \                     `??append::?relay`:
   \   000000   12....       LCALL   ?BDISPATCH
   \   000003   ......       DC24    append

   \                                 In  segment BANK_RELAYS, align 1
   \                     `??destroyAll::?relay`:
   \   000000   12....       LCALL   ?BDISPATCH
   \   000003   ......       DC24    destroyAll

   \                                 In  segment BANK_RELAYS, align 1
   \                     `??printList::?relay`:
   \   000000   12....       LCALL   ?BDISPATCH
   \   000003   ......       DC24    printList

   \                                 In  segment BANK_RELAYS, align 1
   \                     `??listSize::?relay`:
   \   000000   12....       LCALL   ?BDISPATCH
   \   000003   ......       DC24    listSize

   \                                 In  segment BANK_RELAYS, align 1
   \                     `??get::?relay`:
   \   000000   12....       LCALL   ?BDISPATCH
   \   000003   ......       DC24    get

   \                                 In  segment BANK_RELAYS, align 1
   \                     `??printListNode::?relay`:
   \   000000   12....       LCALL   ?BDISPATCH
   \   000003   ......       DC24    printListNode

   \                                 In  segment BANK_RELAYS, align 1
   \                     `??isEmpty::?relay`:
   \   000000   12....       LCALL   ?BDISPATCH
   \   000003   ......       DC24    isEmpty

   \                                 In  segment BANK_RELAYS, align 1
   \                     `??trim::?relay`:
   \   000000   12....       LCALL   ?BDISPATCH
   \   000003   ......       DC24    trim

   \                                 In  segment BANK_RELAYS, align 1
   \                     `??charTrim::?relay`:
   \   000000   12....       LCALL   ?BDISPATCH
   \   000003   ......       DC24    charTrim

   \                                 In  segment BANK_RELAYS, align 1
   \                     `??toString::?relay`:
   \   000000   12....       LCALL   ?BDISPATCH
   \   000003   ......       DC24    toString

   \                                 In  segment BANK_RELAYS, align 1
   \                     `??intToStr::?relay`:
   \   000000   12....       LCALL   ?BDISPATCH
   \   000003   ......       DC24    intToStr

   \                                 In  segment BANK_RELAYS, align 1
   \                     `??doSomething::?relay`:
   \   000000   12....       LCALL   ?BDISPATCH
   \   000003   ......       DC24    doSomething

   \                                 In  segment BANK_RELAYS, align 1
   \                     `??judgeInfo::?relay`:
   \   000000   12....       LCALL   ?BDISPATCH
   \   000003   ......       DC24    judgeInfo

   \                                 In  segment BANK_RELAYS, align 1
   \                     `??substr::?relay`:
   \   000000   12....       LCALL   ?BDISPATCH
   \   000003   ......       DC24    substr

   \                                 In  segment BANK_RELAYS, align 1
   \                     `??hasChar::?relay`:
   \   000000   12....       LCALL   ?BDISPATCH
   \   000003   ......       DC24    hasChar

   \                                 In  segment BANK_RELAYS, align 1
   \                     `??splitStr::?relay`:
   \   000000   12....       LCALL   ?BDISPATCH
   \   000003   ......       DC24    splitStr

   \                                 In  segment BANK_RELAYS, align 1
   \                     `??judgeInfo_list::?relay`:
   \   000000   12....       LCALL   ?BDISPATCH
   \   000003   ......       DC24    judgeInfo_list

   \                                 In  segment BANK_RELAYS, align 1
   \                     `??getInfoBeforeChar::?relay`:
   \   000000   12....       LCALL   ?BDISPATCH
   \   000003   ......       DC24    getInfoBeforeChar

   \                                 In  segment BANK_RELAYS, align 1
   \                     `??tenSqure::?relay`:
   \   000000   12....       LCALL   ?BDISPATCH
   \   000003   ......       DC24    tenSqure

   \                                 In  segment BANK_RELAYS, align 1
   \                     `??getInfoBeforeCharR::?relay`:
   \   000000   12....       LCALL   ?BDISPATCH
   \   000003   ......       DC24    getInfoBeforeCharR

   \                                 In  segment BANK_RELAYS, align 1
   \                     `??deleteBeforeChar::?relay`:
   \   000000   12....       LCALL   ?BDISPATCH
   \   000003   ......       DC24    deleteBeforeChar

   \                                 In  segment BANK_RELAYS, align 1
   \                     `??firstAlphaStr::?relay`:
   \   000000   12....       LCALL   ?BDISPATCH
   \   000003   ......       DC24    firstAlphaStr

   \                                 In  segment BANK_RELAYS, align 1
   \                     `??OK_ERROR::?relay`:
   \   000000   12....       LCALL   ?BDISPATCH
   \   000003   ......       DC24    OK_ERROR

   \                                 In  segment BANK_RELAYS, align 1
   \                     `??UartTX_Send_String::?relay`:
   \   000000   12....       LCALL   ?BDISPATCH
   \   000003   ......       DC24    UartTX_Send_String

   \                                 In  segment BANK_RELAYS, align 1
   \                     `??delayms::?relay`:
   \   000000   12....       LCALL   ?BDISPATCH
   \   000003   ......       DC24    delayms

   \                                 In  segment BANK_RELAYS, align 1
   \                     `??Cfg32M::?relay`:
   \   000000   12....       LCALL   ?BDISPATCH
   \   000003   ......       DC24    Cfg32M

   \                                 In  segment BANK_RELAYS, align 1
   \                     `??UartCfg::?relay`:
   \   000000   12....       LCALL   ?BDISPATCH
   \   000003   ......       DC24    UartCfg

   \                                 In  segment BANK_RELAYS, align 1
   \                     `??sapp_taskInitProcess::?relay`:
   \   000000   12....       LCALL   ?BDISPATCH
   \   000003   ......       DC24    sapp_taskInitProcess

   \                                 In  segment BANK_RELAYS, align 1
   \                     `??createEndPoint::?relay`:
   \   000000   12....       LCALL   ?BDISPATCH
   \   000003   ......       DC24    createEndPoint

   \                                 In  segment BANK_RELAYS, align 1
   \                     `??sapp_controlEpProcess::?relay`:
   \   000000   12....       LCALL   ?BDISPATCH
   \   000003   ......       DC24    sapp_controlEpProcess

   \                                 In  segment BANK_RELAYS, align 1
   \                     `??sapp_functionEpProcess::?relay`:
   \   000000   12....       LCALL   ?BDISPATCH
   \   000003   ......       DC24    sapp_functionEpProcess

   \                                 In  segment BANK_RELAYS, align 1
   \                     `??SendData::?relay`:
   \   000000   12....       LCALL   ?BDISPATCH
   \   000003   ......       DC24    SendData

   \                                 In  segment BANK_RELAYS, align 1
   \                     `??CreateUserTimer::?relay`:
   \   000000   12....       LCALL   ?BDISPATCH
   \   000003   ......       DC24    CreateUserTimer

   \                                 In  segment BANK_RELAYS, align 1
   \                     `??DeleteUserTimer::?relay`:
   \   000000   12....       LCALL   ?BDISPATCH
   \   000003   ......       DC24    DeleteUserTimer

   \                                 In  segment BANK_RELAYS, align 1
   \                     `??ModifyRefreshCycle::?relay`:
   \   000000   12....       LCALL   ?BDISPATCH
   \   000003   ......       DC24    ModifyRefreshCycle

   \                                 In  segment BANK_RELAYS, align 1
   \                     `??RouterTimeoutRoutine::?relay`:
   \   000000   12....       LCALL   ?BDISPATCH
   \   000003   ......       DC24    RouterTimeoutRoutine

   \                                 In  segment BANK_RELAYS, align 1
   \                     `??RouterIncomingRoutine::?relay`:
   \   000000   12....       LCALL   ?BDISPATCH
   \   000003   ......       DC24    RouterIncomingRoutine

   \                                 In  segment XDATA_ROM_C, align 1
   \                     `?<Constant "head">`:
   \   000000   68656164     DB "head"
   \            00      

   \                                 In  segment XDATA_ROM_C, align 1
   \                     `?<Constant "\\\\\\\\Mac\\\\Home\\\\Documents\\\\...">`:
   \   000000   5C5C4D61     DB 5CH, 5CH, 4DH, 61H, 63H, 5CH, 48H, 6FH
   \            635C486F
   \   000008   6D655C44     DB 6DH, 65H, 5CH, 44H, 6FH, 63H, 75H, 6DH
   \            6F63756D
   \   000010   656E7473     DB 65H, 6EH, 74H, 73H, 5CH, 47H, 69H, 74H
   \            5C476974
   \   000018   4875625C     DB 48H, 75H, 62H, 5CH, 4BH, 72H, 61H, 6BH
   \            4B72616B
   \   000020   656E5C5A     DB 65H, 6EH, 5CH, 5AH, 69H, 67H, 62H, 65H
   \            69676265
   \   000028   655F4E65     DB 65H, 5FH, 4EH, 65H, 74H, 57H, 6FH, 72H
   \            74576F72
   \   000030   6B5C5072     DB 6BH, 5CH, 50H, 72H, 6FH, 6AH, 65H, 63H
   \            6F6A6563
   \   000038   74735C53     DB 74H, 73H, 5CH, 53H, 61H, 70H, 70H, 57H
   \            61707057
   \   000040   736E5C53     DB 73H, 6EH, 5CH, 53H, 6FH, 75H, 72H, 63H
   \            6F757263
   \   000048   655C4C69     DB 65H, 5CH, 4CH, 69H, 73H, 74H, 2EH, 68H
   \            73742E68
   \   000050   00           DB 0

   \                                 In  segment XDATA_ROM_C, align 1
   \                     `?<Constant "pNewNode">`:
   \   000000   704E6577     DB "pNewNode"
   \            4E6F6465
   \            00      

   \                                 In  segment XDATA_ROM_C, align 1
   \                     `?<Constant "pHead">`:
   \   000000   70486561     DB "pHead"
   \            6400    

   \                                 In  segment XDATA_ROM_C, align 1
   \                     `?<Constant "">`:
   \   000000   00           DB ""

   \                                 In  segment XDATA_ROM_C, align 1
   \                     `?<Constant "ERROR">`:
   \   000000   4552524F     DB "ERROR"
   \            5200    

   \                                 In  segment XDATA_ROM_C, align 1
   \                     `?<Constant "OK">`:
   \   000000   4F4B00       DB "OK"

   \                                 In  segment XDATA_ROM_C, align 1
   \                     `?<Constant ">">`:
   \   000000   3E00         DB ">"

   \                                 In  segment XDATA_ROM_C, align 1
   \                     `?<Constant "SENDOK">`:
   \   000000   53454E44     DB "SENDOK"
   \            4F4B00  

   \                                 In  segment XDATA_ROM_C, align 1
   \                     `?<Constant "">_1`:
   \   000000   00           DB ""
   \   000001   00000000     DB 0, 0, 0, 0, 0, 0, 0, 0
   \            00000000
   \   000009   00000000     DB 0, 0, 0, 0, 0, 0, 0, 0
   \            00000000
   \   000011   00000000     DB 0, 0, 0, 0, 0, 0, 0, 0
   \            00000000
   \   000019   00000000     DB 0, 0, 0, 0, 0, 0, 0, 0
   \            00000000
   \   000021   00000000     DB 0, 0, 0, 0, 0, 0, 0, 0
   \            00000000
   \   000029   00000000     DB 0, 0, 0, 0, 0, 0, 0, 0
   \            00000000
   \   000031   00000000     DB 0, 0, 0, 0, 0, 0, 0, 0
   \            00000000
   \   000039   00000000     DB 0, 0, 0, 0, 0, 0, 0, 0
   \            00000000
   \   000041   00000000     DB 0, 0, 0, 0, 0, 0, 0, 0
   \            00000000
   \   000049   00000000     DB 0, 0, 0, 0, 0, 0, 0, 0
   \            00000000
   \   000051   00000000     DB 0, 0, 0, 0, 0, 0, 0, 0
   \            00000000
   \   000059   00000000     DB 0, 0, 0, 0, 0, 0, 0, 0
   \            00000000
   \   000061   00000000     DB 0, 0, 0, 0, 0, 0, 0, 0
   \            00000000
   \   000069   00000000     DB 0, 0, 0, 0, 0, 0, 0, 0
   \            00000000
   \   000071   00000000     DB 0, 0, 0, 0, 0, 0, 0, 0
   \            00000000
   \   000079   00000000     DB 0, 0, 0, 0, 0, 0, 0, 0
   \            00000000
   \   000081   00000000     DB 0, 0, 0, 0, 0, 0, 0, 0
   \            00000000
   \   000089   00000000     DB 0, 0, 0, 0, 0, 0, 0, 0
   \            00000000
   \   000091   00000000     DB 0, 0, 0, 0, 0, 0, 0, 0
   \            00000000
   \   000099   00000000     DB 0, 0, 0, 0, 0, 0, 0, 0
   \            00000000
   \   0000A1   00000000     DB 0, 0, 0, 0, 0, 0, 0, 0
   \            00000000
   \   0000A9   00000000     DB 0, 0, 0, 0, 0, 0, 0, 0
   \            00000000
   \   0000B1   00000000     DB 0, 0, 0, 0, 0, 0, 0, 0
   \            00000000
   \   0000B9   00000000     DB 0, 0, 0, 0, 0, 0, 0, 0
   \            00000000
   \   0000C1   00000000     DB 0, 0, 0, 0, 0, 0, 0, 0
   \            00000000
   \   0000C9   00000000     DB 0, 0, 0, 0, 0, 0, 0, 0
   \            00000000
   \   0000D1   00000000     DB 0, 0, 0, 0, 0, 0, 0, 0
   \            00000000
   \   0000D9   00000000     DB 0, 0, 0, 0, 0, 0, 0, 0
   \            00000000
   \   0000E1   00000000     DB 0, 0, 0, 0, 0, 0, 0, 0
   \            00000000
   \   0000E9   00000000     DB 0, 0, 0, 0, 0, 0, 0, 0
   \            00000000
   \   0000F1   00000000     DB 0, 0, 0, 0, 0, 0, 0, 0
   \            00000000
   \   0000F9   00000000     DB 0, 0, 0, 0, 0, 0
   \            0000    

   \                                 In  segment XDATA_ROM_C, align 1
   \                     `?<Constant "">_2`:
   \   000000   00           DB ""
   \   000001   00000000     DB 0, 0, 0, 0, 0, 0, 0, 0
   \            00000000
   \   000009   00000000     DB 0, 0, 0, 0, 0, 0, 0, 0
   \            00000000
   \   000011   00000000     DB 0, 0, 0, 0, 0, 0, 0, 0
   \            00000000
   \   000019   00000000     DB 0, 0, 0, 0, 0, 0, 0, 0
   \            00000000
   \   000021   00000000     DB 0, 0, 0, 0, 0, 0, 0, 0
   \            00000000
   \   000029   00000000     DB 0, 0, 0, 0, 0, 0, 0, 0
   \            00000000
   \   000031   00000000     DB 0, 0, 0, 0, 0, 0, 0, 0
   \            00000000
   \   000039   00000000     DB 0, 0, 0, 0, 0, 0, 0, 0
   \            00000000
   \   000041   00000000     DB 0, 0, 0, 0, 0, 0, 0, 0
   \            00000000
   \   000049   00000000     DB 0, 0, 0, 0, 0, 0, 0, 0
   \            00000000
   \   000051   00000000     DB 0, 0, 0, 0, 0, 0, 0, 0
   \            00000000
   \   000059   00000000     DB 0, 0, 0, 0, 0, 0, 0, 0
   \            00000000
   \   000061   00000000     DB 0, 0, 0, 0, 0, 0, 0, 0
   \            00000000
   \   000069   00000000     DB 0, 0, 0, 0, 0, 0, 0, 0
   \            00000000
   \   000071   00000000     DB 0, 0, 0, 0, 0, 0, 0, 0
   \            00000000
   \   000079   00000000     DB 0, 0, 0, 0, 0, 0, 0, 0
   \            00000000
   \   000081   00000000     DB 0, 0, 0, 0, 0, 0, 0, 0
   \            00000000
   \   000089   00000000     DB 0, 0, 0, 0, 0, 0, 0, 0
   \            00000000
   \   000091   00000000     DB 0, 0, 0, 0, 0, 0, 0, 0
   \            00000000
   \   000099   00000000     DB 0, 0, 0, 0, 0, 0, 0, 0
   \            00000000
   \   0000A1   00000000     DB 0, 0, 0, 0, 0, 0, 0, 0
   \            00000000
   \   0000A9   00000000     DB 0, 0, 0, 0, 0, 0, 0, 0
   \            00000000
   \   0000B1   00000000     DB 0, 0, 0, 0, 0, 0, 0, 0
   \            00000000
   \   0000B9   00000000     DB 0, 0, 0, 0, 0, 0, 0, 0
   \            00000000
   \   0000C1   00000000     DB 0, 0, 0, 0, 0, 0, 0, 0
   \            00000000
   \   0000C9   00000000     DB 0, 0, 0, 0, 0, 0, 0, 0
   \            00000000
   \   0000D1   00000000     DB 0, 0, 0, 0, 0, 0, 0, 0
   \            00000000
   \   0000D9   00000000     DB 0, 0, 0, 0, 0, 0, 0, 0
   \            00000000
   \   0000E1   00000000     DB 0, 0, 0, 0, 0, 0, 0, 0
   \            00000000
   \   0000E9   00000000     DB 0, 0, 0, 0, 0, 0, 0, 0
   \            00000000
   \   0000F1   00000000     DB 0, 0, 0, 0, 0, 0, 0, 0
   \            00000000
   \   0000F9   00000000     DB 0, 0, 0, 0, 0, 0
   \            0000    

   \                                 In  segment XDATA_ROM_C, align 1
   \                     `?<Constant "OK">_1`:
   \   000000   4F4B00       DB "OK"

   \                                 In  segment XDATA_ROM_C, align 1
   \                     `?<Constant "ERROR">_1`:
   \   000000   4552524F     DB "ERROR"
   \            5200    

   \                                 In  segment XDATA_ROM_C, align 1
   \                     `?<Constant "AT+CIPMUX=1\\r\\n">`:
   \   000000   41542B43     DB "AT+CIPMUX=1\015\012"
   \            49504D55
   \            583D310D
   \            0A00    

   \                                 In  segment XDATA_ROM_C, align 1
   \                     `?<Constant "AT+CIPSERVER=1,8080\\r\\n">`:
   \   000000   41542B43     DB "AT+CIPSERVER=1,8080\015\012"
   \            49505345
   \            52564552
   \            3D312C38
   \            3038300D
   \            0A00    

   \                                 In  segment XDATA_ROM_C, align 1
   \                     `?<Constant "AT+CIPSTART=0,\\"TCP\\",\\"...">`:
   \   000000   41542B43     DB "AT+CIPSTART=0,\"TCP\",\"192.168.4.2\",5000\015\012"
   \            49505354
   \            4152543D
   \            302C2254
   \            4350222C
   \            22313932
   \            2E313638
   \            2E342E32
   \            222C3530
   \            30300D0A
   \            00      

   \                                 In  segment XDATA_ROM_C, align 1
   \                     `?<Constant "AT+CIPSEND=0,">`:
   \   000000   41542B43     DB "AT+CIPSEND=0,"
   \            49505345
   \            4E443D30
   \            2C00    
   \   00000E   00000000     DB 0, 0, 0, 0, 0, 0, 0, 0
   \            00000000
   \   000016   00000000     DB 0, 0, 0, 0, 0, 0, 0, 0
   \            00000000
   \   00001E   00000000     DB 0, 0, 0, 0, 0, 0, 0, 0
   \            00000000
   \   000026   00000000     DB 0, 0, 0, 0, 0, 0, 0, 0
   \            00000000
   \   00002E   00000000     DB 0, 0, 0, 0, 0, 0, 0, 0
   \            00000000
   \   000036   00000000     DB 0, 0, 0, 0, 0, 0, 0, 0
   \            00000000
   \   00003E   00000000     DB 0, 0, 0, 0, 0, 0, 0, 0
   \            00000000
   \   000046   00000000     DB 0, 0, 0, 0, 0, 0, 0, 0
   \            00000000
   \   00004E   00000000     DB 0, 0, 0, 0, 0, 0, 0, 0
   \            00000000
   \   000056   00000000     DB 0, 0, 0, 0, 0, 0, 0, 0
   \            00000000
   \   00005E   00000000     DB 0, 0, 0, 0, 0, 0
   \            0000    

   \                                 In  segment XDATA_ROM_C, align 1
   \                     `?<Constant "%d">`:
   \   000000   256400       DB "%d"

   \                                 In  segment XDATA_ROM_C, align 1
   \                     `?<Constant "\\r\\n">`:
   \   000000   0D0A00       DB "\015\012"

   \                                 In  segment XDATA_ROM_C, align 1
   \                     `?<Constant "AT+CIPSTART=0,\\"TCP\\",\\"...">_1`:
   \   000000   41542B43     DB "AT+CIPSTART=0,\"TCP\",\"192.168.4.3\",5000\015\012"
   \            49505354
   \            4152543D
   \            302C2254
   \            4350222C
   \            22313932
   \            2E313638
   \            2E342E33
   \            222C3530
   \            30300D0A
   \            00      
    606          #endif
    607          
    608          #if defined(ZDO_COORDINATOR)
    609          //void CoordinatorTimeoutRoutine(struct ep_info_t *ep){
    610              //SendData(ep->ep, (unsigned char *)&topoBuffer, 0x0000, TRANSFER_ENDPOINT, sizeof(TOPOINFO)); //
    611             //UartTX_Send_String("AT\r\n",4);
    612          //}
    613          //wifi
    614          void CoordinatorIncomingRoutine(struct ep_info_t *ep, uint16 addr, uint8 endPoint, afMSGCommandFormat_t *msg)
    615          { 
    616            
    617             UartTX_Send_String("AT+CIPSTART=0,\"TCP\",\"192.168.4.2\",5000\r\n",40);
    618             delayms(100);
    619             char srcchar[100] = "AT+CIPSEND=0,";
    620             char * tempchar = (char *)osal_mem_alloc(sizeof(char)*50);
    621             sprintf(tempchar,"%d",msg->DataLength+2);
    622             strcat(srcchar,tempchar);
    623             strcat(srcchar,"\r\n");
    624             UartTX_Send_String(srcchar,strlen(srcchar));
    625             delayms(100);
    626             UartTX_Send_String(msg->Data,msg->DataLength);
    627             UartTX_Send_String("\r\n",2);
    628             delayms(100);
    629           
    630             UartTX_Send_String("AT+CIPSTART=0,\"TCP\",\"192.168.4.3\",5000\r\n",40);
    631             delayms(100);
    632             UartTX_Send_String(srcchar,strlen(srcchar));
    633             delayms(100);
    634             UartTX_Send_String(msg->Data,msg->DataLength);
    635             UartTX_Send_String("\r\n",2);
    636             delayms(100);
    637            
    638             HalLedBlink(HAL_LED_2, 1, 50, 90 );
    639          }
    640          #endif
    641          #endif//SAPP_ZSTACK

   Maximum stack usage in bytes:

   ISTACK XSTACK Function
   ------ ------ --------
      0      0   Cfg32M
      1      9   CreateUserTimer
        0      9   -> osal_start_timerEx
      2      0   DeleteUserTimer
      3      0   ModifyRefreshCycle
      0     40   OK_ERROR
        0     21   -> get
        0     21   -> listSize
        0     21   -> strcmp
      0    118   RouterIncomingRoutine
        0    114   -> UartTX_Send_String
        0    114   -> delayms
        0    114   -> osal_mem_alloc
        0    116   -> sprintf
        0    114   -> strcat
        0    114   -> strlen
      0      0   RouterTimeoutRoutine
      1     54   SendData
        0     33   -> AF_DataRequest
        0     24   -> HalLedBlink
      0      0   UartCfg
      0    123   UartTX_Send_String
      0    130   append
        0     14   -> _Assert
        0     12   -> creatNode
      1     29   charTrim
        0     17   -> strlen
      0     26   creatNode
        0     14   -> _Assert
        0     12   -> osal_mem_alloc
        0     12   -> strcpy
      1     20   createEndPoint
        0     10   -> afRegister
      0    114   delayms
      0     35   deleteBeforeChar
        0     16   -> strlen
      0     14   destroyAll
        0     14   -> _Assert
        0     12   -> osal_mem_free
      0     13   doSomething
        0     13   -> init
        0     13   -> judgeInfo_list
        0     13   -> splitStr
        0     13   -> trim
      1    281   firstAlphaStr
        0    269   -> strlen
      0     37   get
        0     16   -> _Assert
        0     14   -> listSize
      1    289   getInfoBeforeChar
        0    270   -> strlen
      1     37   getInfoBeforeCharR
        0     18   -> strlen
        0     18   -> tenSqure
      0    132   hasChar
        0     16   -> strlen
      0    128   init
        0     12   -> _Assert
      0      9   intToStr
        0      9   -> tenSqure
      0     12   isEmpty
        0     12   -> _Assert
      0     31   judgeInfo
        0     12   -> deleteBeforeChar
        0     12   -> firstAlphaStr
        0     12   -> getInfoBeforeChar
        0     12   -> strcmp
      0     40   judgeInfo_list
        0     19   -> OK_ERROR
        0     21   -> SendData
        0     19   -> append
        0     19   -> deleteBeforeChar
        0     19   -> get
        0     19   -> getInfoBeforeChar
        0     19   -> getInfoBeforeCharR
        0     19   -> hasChar
        0     19   -> init
        0     19   -> judgeInfo
        0     19   -> judgeInfo_list
        0     19   -> listSize
        0     19   -> strlen
      0     33   listSize
        0     12   -> _Assert
      0      9   printList
        0      9   -> HalUARTWrite
      0      9   printListNode
        0      9   -> get
      1     20   sapp_controlEpProcess
        0     17   -> HalLedBlink
        0     17   -> NLME_GetCoordShortAddr
        0     17   -> NLME_GetExtAddr
        0     19   -> SendData
        0     19   -> memcpy
        0     20   -> osal_memcpy
        0     17   -> osal_msg_deallocate
        0     17   -> osal_msg_receive
        0     17   -> osal_start_timerEx
        0     17   -> osal_stop_timerEx
      1     19   sapp_functionEpProcess
        0     17   -> HalLedBlink
        0     17   -> osal_msg_deallocate
        0     17   -> osal_msg_receive
        0     17   -> osal_start_timerEx
        0     17   -> osal_stop_timerEx
      1     10   sapp_taskInitProcess
        0     10   -> HalIOInit
        0     10   -> MT_UartRegisterTaskID
        0     10   -> UartTX_Send_String
        0     10   -> createEndPoint
        0     10   -> delayms
        0     10   -> osal_mem_alloc
      1    129   splitStr
        0    116   -> append
        0    116   -> hasChar
        0    116   -> init
        0    116   -> strlen
      0    255   substr
      0     18   tenSqure
      2    100   toString
      0     27   trim
        0     14   -> _Assert
        0     12   -> charTrim
        0     12   -> strcmp


   Segment part sizes:

   Bytes  Function/Label
   -----  --------------
       1  ?<Constant "">
     255  ?<Constant "">_1
     255  ?<Constant "">_2
       3  ?<Constant "%d">
       2  ?<Constant ">">
      14  ?<Constant "AT+CIPMUX=1\r\n">
     100  ?<Constant "AT+CIPSEND=0,">
      22  ?<Constant "AT+CIPSERVER=1,8080\r\n">
      41  ?<Constant "AT+CIPSTART=0,\"TCP\",\"...">
      41  ?<Constant "AT+CIPSTART=0,\"TCP\",\"...">_1
       6  ?<Constant "ERROR">
       6  ?<Constant "ERROR">_1
       3  ?<Constant "OK">
       3  ?<Constant "OK">_1
       7  ?<Constant "SENDOK">
      81  ?<Constant "\\\\Mac\\Home\\Documents\\...">
       3  ?<Constant "\r\n">
       5  ?<Constant "head">
       6  ?<Constant "pHead">
       9  ?<Constant "pNewNode">
       3  ?<Constant {3, 0, 0}>
       2  ?<Initializer for arrow>
       3  ?<Initializer for at>
       6  ?<Initializer for cifsr>
       9  ?<Initializer for cipmux>
       8  ?<Initializer for cipsend>
      10  ?<Initializer for cipserver>
       9  ?<Initializer for cipstart>
      10  ?<Initializer for cipstatus>
       2  ?<Initializer for commonClusterId>
      10  ?<Initializer for connect>
       6  ?<Initializer for cwlap>
       6  ?<Initializer for cwlif>
       9  ?<Initializer for cwmode_1>
       9  ?<Initializer for cwmode_2>
       9  ?<Initializer for cwmode_3>
       8  ?<Initializer for cwmode_question_mark>
       6  ?<Initializer for error>
       5  ?<Initializer for ipd>
       4  ?<Initializer for rst>
       7  ?<Initializer for sendok>
      14  ?<Initializer for topoBuffer>
       1  ??Subroutine100_0
       9  ??Subroutine101_0
       6  ??Subroutine79_0
       5  ??Subroutine80_0
       6  ??Subroutine81_0
       6  ??Subroutine82_0
       6  ??Subroutine83_0
      11  ??Subroutine84_0
       5  ??Subroutine85_0
       6  ??Subroutine86_0
      12  ??Subroutine87_0
       4  ??Subroutine88_0
       7  ??Subroutine89_0
       5  ??Subroutine90_0
       4  ??Subroutine91_0
       7  ??Subroutine92_0
       6  ??Subroutine93_0
       2  ??Subroutine94_0
       2  ??Subroutine95_0
       2  ??Subroutine96_0
       6  ??Subroutine97_0
       9  ??Subroutine98_0
       2  ??Subroutine99_0
       5  ?Subroutine0
       1  ?Subroutine1
       9  ?Subroutine10
       5  ?Subroutine11
       7  ?Subroutine12
      15  ?Subroutine13
      16  ?Subroutine14
      10  ?Subroutine15
       4  ?Subroutine16
       4  ?Subroutine17
       6  ?Subroutine18
       8  ?Subroutine19
       5  ?Subroutine2
      35  ?Subroutine20
      15  ?Subroutine21
      10  ?Subroutine22
      18  ?Subroutine23
      15  ?Subroutine24
      13  ?Subroutine25
       4  ?Subroutine26
      16  ?Subroutine27
       6  ?Subroutine28
       7  ?Subroutine29
       3  ?Subroutine3
       6  ?Subroutine30
       9  ?Subroutine31
      14  ?Subroutine32
      15  ?Subroutine33
       3  ?Subroutine34
      10  ?Subroutine35
       4  ?Subroutine36
       4  ?Subroutine37
      23  ?Subroutine38
      23  ?Subroutine39
       8  ?Subroutine4
      13  ?Subroutine40
      15  ?Subroutine41
      12  ?Subroutine42
       7  ?Subroutine43
       4  ?Subroutine44
      13  ?Subroutine45
       6  ?Subroutine46
       8  ?Subroutine47
       8  ?Subroutine48
      11  ?Subroutine49
       7  ?Subroutine5
      11  ?Subroutine50
      10  ?Subroutine51
       4  ?Subroutine52
       4  ?Subroutine53
       2  ?Subroutine54
      24  ?Subroutine55
      16  ?Subroutine56
       5  ?Subroutine57
      12  ?Subroutine58
      10  ?Subroutine59
       3  ?Subroutine6
      10  ?Subroutine60
      15  ?Subroutine61
       8  ?Subroutine62
       7  ?Subroutine63
       6  ?Subroutine64
       6  ?Subroutine65
      19  ?Subroutine66
       6  ?Subroutine67
       4  ?Subroutine68
       9  ?Subroutine69
       8  ?Subroutine7
       9  ?Subroutine70
       8  ?Subroutine71
      11  ?Subroutine72
      10  ?Subroutine73
       9  ?Subroutine74
      10  ?Subroutine75
       6  ?Subroutine76
      12  ?Subroutine77
       5  ?Subroutine78
       6  ?Subroutine8
       6  ?Subroutine9
       1  CLKCONCMD
       1  CLKCONSTA
      23  Cfg32M
       6  Cfg32M::?relay
      54  CreateUserTimer
       6  CreateUserTimer::?relay
      13  DeleteUserTimer
       6  DeleteUserTimer::?relay
      47  ModifyRefreshCycle
       6  ModifyRefreshCycle::?relay
      94  OK_ERROR
       6  OK_ERROR::?relay
       1  P0SEL
       1  PERCFG
     155  RouterIncomingRoutine
       6  RouterIncomingRoutine::?relay
       3  RouterTimeoutRoutine
       6  RouterTimeoutRoutine::?relay
       1  SLEEPCMD
       1  SLEEPSTA
     185  SendData
       6  SendData::?relay
       1  U0BAUD
       1  U0CSR
       1  U0DBUF
       1  U0GCR
      22  UartCfg
       6  UartCfg::?relay
      49  UartTX_Send_String
       6  UartTX_Send_String::?relay
       1  _A_IEN0
       1  _A_IRCON2
      89  append
       6  append::?relay
       2  arrow
       3  at
     131  charTrim
       6  charTrim::?relay
       6  cifsr
       9  cipmux
       8  cipsend
      10  cipserver
       9  cipstart
      10  cipstatus
       2  commonClusterId
      10  connect
      33  controlEndPointInfo
       1  controlTaskId
      78  creatNode
       6  creatNode::?relay
     179  createEndPoint
       6  createEndPoint::?relay
       1  curNwkState
       6  cwlap
       6  cwlif
       9  cwmode_1
       9  cwmode_2
       9  cwmode_3
       8  cwmode_question_mark
      36  delayms
       6  delayms::?relay
      56  deleteBeforeChar
       6  deleteBeforeChar::?relay
      62  destroyAll
       6  destroyAll::?relay
      62  doSomething
       6  doSomething::?relay
       6  error
      87  firstAlphaStr
       6  firstAlphaStr::?relay
       2  funcTableBuffer
       1  functionTaskId
      86  get
       6  get::?relay
      70  getInfoBeforeChar
       6  getInfoBeforeChar::?relay
     133  getInfoBeforeCharR
       6  getInfoBeforeCharR::?relay
      73  hasChar
       6  hasChar::?relay
      49  init
       6  init::?relay
      39  intToStr
       6  intToStr::?relay
       5  ipd
      48  isEmpty
       6  isEmpty::?relay
       1  isUserTimerRunning
     367  judgeInfo
       6  judgeInfo::?relay
     801  judgeInfo_list
       6  judgeInfo_list::?relay
      59  listSize
       6  listSize::?relay
      37  printList
       6  printList::?relay
      11  printListNode
       6  printListNode::?relay
       4  rst
     823  sapp_controlEpProcess
       6  sapp_controlEpProcess::?relay
     577  sapp_functionEpProcess
       6  sapp_functionEpProcess::?relay
     281  sapp_taskInitProcess
       6  sapp_taskInitProcess::?relay
       7  sendok
     222  splitStr
       6  splitStr::?relay
      33  substr
     255  substr2
       6  substr::?relay
      23  tenSqure
       6  tenSqure::?relay
      45  toString
       6  toString::?relay
      14  topoBuffer
       1  transID
     160  trim
       6  trim::?relay

 
 6 242 bytes in segment BANKED_CODE
   234 bytes in segment BANK_RELAYS
    12 bytes in segment SFR_AN
   152 bytes in segment XDATA_I
   152 bytes in segment XDATA_ID
   866 bytes in segment XDATA_ROM_C
   295 bytes in segment XDATA_Z
 
   386 bytes of CODE     memory
   866 bytes of CONST    memory
     0 bytes of DATA     memory (+ 12 bytes shared)
 6 242 bytes of HUGECODE memory
   447 bytes of XDATA    memory

Errors: none
Warnings: 26
